 Modele_3D_sfun

 Timestamp is 679f4582 (Sun Feb  2 11:14:26 2025)

 Preferred load address is 0000000180000000

 Start         Length     Name                   Class
 0001:00000000 0005bec0H .text$mn                CODE
 0001:0005bec0 00000040H .text$mn$00             CODE
 0001:0005bf00 0000075eH .text$x                 CODE
 0002:00000000 00000600H .idata$5                DATA
 0002:00000600 00000028H .00cfg                  DATA
 0002:00000628 00000008H .CRT$XCA                DATA
 0002:00000630 00000008H .CRT$XCZ                DATA
 0002:00000638 00000008H .CRT$XIA                DATA
 0002:00000640 00000008H .CRT$XIZ                DATA
 0002:00000648 00000008H .CRT$XPA                DATA
 0002:00000650 00000008H .CRT$XPZ                DATA
 0002:00000658 00000008H .CRT$XTA                DATA
 0002:00000660 00000010H .CRT$XTZ                DATA
 0002:00000668 00000000H .gehcont$y              DATA
 0002:00000668 00000000H .gfids$y                DATA
 0002:00000670 00000510H .rdata                  DATA
 0002:00000b80 00000008H .rdata$CastGuardVftablesA DATA
 0002:00000b88 00000008H .rdata$CastGuardVftablesC DATA
 0002:00000b90 0000026cH .rdata$r                DATA
 0002:00000dfc 00000340H .rdata$voltmd           DATA
 0002:0000113c 000002c4H .rdata$zzzdbg           DATA
 0002:00001400 00000008H .rtc$IAA                DATA
 0002:00001408 00000008H .rtc$IZZ                DATA
 0002:00001410 00000008H .rtc$TAA                DATA
 0002:00001418 00000008H .rtc$TZZ                DATA
 0002:00001420 00002410H .xdata                  DATA
 0002:00003830 000000f0H .xdata$x                DATA
 0002:00003920 000002bcH .edata                  DATA
 0002:00003bdc 00000154H .idata$2                DATA
 0002:00003d30 00000018H .idata$3                DATA
 0002:00003d48 00000600H .idata$4                DATA
 0002:00004348 00001348H .idata$6                DATA
 0003:00000000 00013f38H .data                   DATA
 0003:00013f38 00000080H .data$r                 DATA
 0003:00013fb8 00000058H .data$rs                DATA
 0003:00014010 00000d90H .bss                    DATA
 0004:00000000 000025ecH .pdata                  DATA

  Address         Publics by Value              Rva+Base               Lib:Object

 0000:00000000       __dynamic_value_reloc_table 0000000000000000     <absolute>
 0000:00000000       ___safe_se_handler_count   0000000000000000     <absolute>
 0000:00000000       __arm64x_extra_rfe_table_size 0000000000000000     <absolute>
 0000:00000000       __guard_eh_cont_table      0000000000000000     <absolute>
 0000:00000000       __guard_fids_count         0000000000000000     <absolute>
 0000:00000000       __guard_iat_count          0000000000000000     <absolute>
 0000:00000000       __guard_iat_table          0000000000000000     <absolute>
 0000:00000000       __AbsoluteZero             0000000000000000     <absolute>
 0000:00000000       __arm64x_extra_rfe_table   0000000000000000     <absolute>
 0000:00000000       __arm64x_native_entrypoint 0000000000000000     <absolute>
 0000:00000000       __enclave_config           0000000000000000     <absolute>
 0000:00000000       __arm64x_redirection_metadata_count 0000000000000000     <absolute>
 0000:00000000       __x64_code_ranges_to_entry_points 0000000000000000     <absolute>
 0000:00000000       __hybrid_code_map          0000000000000000     <absolute>
 0000:00000000       __guard_check_icall_a64n_fptr 0000000000000000     <absolute>
 0000:00000000       __arm64x_redirection_metadata 0000000000000000     <absolute>
 0000:00000000       ___safe_se_handler_table   0000000000000000     <absolute>
 0000:00000000       __guard_longjmp_count      0000000000000000     <absolute>
 0000:00000000       __guard_eh_cont_count      0000000000000000     <absolute>
 0000:00000000       __guard_fids_table         0000000000000000     <absolute>
 0000:00000000       __hybrid_auxiliary_iat     0000000000000000     <absolute>
 0000:00000000       __x64_code_ranges_to_entry_points_count 0000000000000000     <absolute>
 0000:00000000       __hybrid_auxiliary_iat_copy 0000000000000000     <absolute>
 0000:00000000       __guard_longjmp_table      0000000000000000     <absolute>
 0000:00000000       __hybrid_code_map_count    0000000000000000     <absolute>
 0000:00000100       __guard_flags              0000000000000100     <absolute>
 0000:00000000       __ImageBase                0000000180000000     <linker-defined>
 0001:00000000       Modele_3D_initializer      0000000180001000 f   Modele_3D_sfun.obj
 0001:00000010       Modele_3D_terminator       0000000180001010 f   Modele_3D_sfun.obj
 0001:00000020       load_Modele_3D_optimization_info 0000000180001020 f   Modele_3D_sfun.obj
 0001:000000d0       unload_Modele_3D_optimization_info 00000001800010d0 f   Modele_3D_sfun.obj
 0001:00000100       sf_Modele_3D_method_dispatcher 0000000180001100 f   Modele_3D_sfun.obj
 0001:00000150       sf_Modele_3D_process_check_sum_call 0000000180001150 f   Modele_3D_sfun.obj
 0001:00000640       sf_Modele_3D_get_eml_resolved_functions_info 0000000180001640 f   Modele_3D_sfun.obj
 0001:00000820       sf_Modele_3D_third_party_uses_info 0000000180001820 f   Modele_3D_sfun.obj
 0001:000009f0       sf_Modele_3D_jit_fallback_info 00000001800019f0 f   Modele_3D_sfun.obj
 0001:00000bc0       sf_Modele_3D_get_post_codegen_info 0000000180001bc0 f   Modele_3D_sfun.obj
 0001:00000da0       sf_Modele_3D_updateBuildInfo_args_info 0000000180001da0 f   Modele_3D_sfun.obj
 0001:00000f60       sf_c2_Modele_3D_get_eml_resolved_functions_info 0000000180001f60 f   c2_Modele_3D.obj
 0001:00000fe0       sf_c2_Modele_3D_get_check_sum 0000000180001fe0 f   c2_Modele_3D.obj
 0001:000010b0       c2_Modele_3D_method_dispatcher 00000001800020b0 f   c2_Modele_3D.obj
 0001:000393b0       sf_c2_Modele_3D_third_party_uses_info 000000018003a3b0 f   c2_Modele_3D.obj
 0001:00039400       sf_c2_Modele_3D_jit_fallback_info 000000018003a400 f   c2_Modele_3D.obj
 0001:00039590       sf_c2_Modele_3D_updateBuildInfo_args_info 000000018003a590 f   c2_Modele_3D.obj
 0001:000398b0       sf_c2_Modele_3D_get_post_codegen_info 000000018003a8b0 f   c2_Modele_3D.obj
 0001:00039e40       mexFunction                000000018003ae40 f   Modele_3D_sfun_registry.obj
 0001:0003c710       _ssSetInputPortDirectFeedThroughFcn 000000018003d710 f   Modele_3D_sfun_registry.obj
 0001:0003c880       _ssSetRWorkValueFcn        000000018003d880 f   Modele_3D_sfun_registry.obj
 0001:0003c900       _ssGetRWorkValueFcn        000000018003d900 f   Modele_3D_sfun_registry.obj
 0001:0003c970       _ssSetIWorkValueFcn        000000018003d970 f   Modele_3D_sfun_registry.obj
 0001:0003c9f0       _ssGetIWorkValueFcn        000000018003d9f0 f   Modele_3D_sfun_registry.obj
 0001:0003ca60       _ssSetPWorkValueFcn        000000018003da60 f   Modele_3D_sfun_registry.obj
 0001:0003cae0       _ssGetPWorkValueFcn        000000018003dae0 f   Modele_3D_sfun_registry.obj
 0001:0003cb50       _ssGetInputPortSignalFcn   000000018003db50 f   Modele_3D_sfun_registry.obj
 0001:0003cee0       _ssGetInputPortBufferDstPortFcn 000000018003dee0 f   Modele_3D_sfun_registry.obj
 0001:0003cf60       _ssGetInputPortSignalPtrsFcn 000000018003df60 f   Modele_3D_sfun_registry.obj
 0001:0003d2f0       ssGetParameterTuningCompliance 000000018003e2f0 f   Modele_3D_sfun_registry.obj
 0001:0003d360       _ssReadInputStringFcn      000000018003e360 f   Modele_3D_sfun_registry.obj
 0001:0003d3d0       ssGetDTypeIdFromMxArray    000000018003e3d0 f   Modele_3D_sfun_registry.obj
 0001:0003d4f0       ssWriteRTWMx2dMatParam     000000018003e4f0 f   Modele_3D_sfun_registry.obj
 0001:0003d580       ssWriteRTWMxVectParam      000000018003e580 f   Modele_3D_sfun_registry.obj
 0001:0003d600       ssWriteRTWParameters       000000018003e600 f   Modele_3D_sfun_registry.obj
 0001:0003dbc0       ssWriteRTWParamSettings    000000018003ebc0 f   Modele_3D_sfun_registry.obj
 0001:0003e2b0       ssWriteRTWStr              000000018003f2b0 f   Modele_3D_sfun_registry.obj
 0001:0003e310       ssWriteRTWWorkVect         000000018003f310 f   Modele_3D_sfun_registry.obj
 0001:0003e870       ssWarning                  000000018003f870 f   Modele_3D_sfun_registry.obj
 0001:0003e960       ssGetRootSS                000000018003f960 f   Modele_3D_sfun_registry.obj
 0001:0003ea20       ssGetParentSS              000000018003fa20 f   Modele_3D_sfun_registry.obj
 0001:0003eae0       ssWriteRTWNameValuePair    000000018003fae0 f   Modele_3D_sfun_registry.obj
 0001:0003efe0       _ssSetInputPortMatrixDimensions 000000018003ffe0 f   Modele_3D_sfun_registry.obj
 0001:0003f130       _ssSetOutputPortMatrixDimensions 0000000180040130 f   Modele_3D_sfun_registry.obj
 0001:0003f280       _ssSetInputPortVectorDimension 0000000180040280 f   Modele_3D_sfun_registry.obj
 0001:0003f330       _ssSetOutputPortVectorDimension 0000000180040330 f   Modele_3D_sfun_registry.obj
 0001:0003f3e0       ssIsRunTimeParamTunable    00000001800403e0 f   Modele_3D_sfun_registry.obj
 0001:0003f450       ssGetSFuncBlockHandle      0000000180040450 f   Modele_3D_sfun_registry.obj
 0001:0003f4c0       _ssGetCallSystemNumFcnCallDestinations 00000001800404c0 f   Modele_3D_sfun_registry.obj
 0001:0003f530       _ssGetCurrentInputPortWidth 0000000180040530 f   Modele_3D_sfun_registry.obj
 0001:0003f670       _ssGetCurrentOutputPortWidth 0000000180040670 f   Modele_3D_sfun_registry.obj
 0001:0003f7b0       ssGetIsZeroCrossControlDisabled 00000001800407b0 f   Modele_3D_sfun_registry.obj
 0001:0003f820       ssSetIsInputPortUsedForContZcSignal 0000000180040820 f   Modele_3D_sfun_registry.obj
 0001:0003f890       ssSetZcSignalIsZcElementDisc 0000000180040890 f   Modele_3D_sfun_registry.obj
 0001:0003f940       ssSetZcSignalName          0000000180040940 f   Modele_3D_sfun_registry.obj
 0001:0003f9b0       ssSetZcSignalWidth         00000001800409b0 f   Modele_3D_sfun_registry.obj
 0001:0003fa20       ssSetZcSignalZcEventType   0000000180040a20 f   Modele_3D_sfun_registry.obj
 0001:0003fa90       ssSetZcSignalType          0000000180040a90 f   Modele_3D_sfun_registry.obj
 0001:0003fb00       ssSetZcSignalZcTol         0000000180040b00 f   Modele_3D_sfun_registry.obj
 0001:0003fb70       ssSetZcSignalNeedsEventNotification 0000000180040b70 f   Modele_3D_sfun_registry.obj
 0001:0003fbe0       ssCreateAndAddZcSignalInfo 0000000180040be0 f   Modele_3D_sfun_registry.obj
 0001:0003fc50       ssCloneAndAddZcSignalInfo  0000000180040c50 f   Modele_3D_sfun_registry.obj
 0001:0003fcc0       ssGetNumZcSignals          0000000180040cc0 f   Modele_3D_sfun_registry.obj
 0001:0003fd30       ssGetZcSignalVector        0000000180040d30 f   Modele_3D_sfun_registry.obj
 0001:0003fda0       ssGetZcSignalName          0000000180040da0 f   Modele_3D_sfun_registry.obj
 0001:0003fe10       ssGetZcSignalWidth         0000000180040e10 f   Modele_3D_sfun_registry.obj
 0001:0003fe80       ssGetZcSignalZcEventType   0000000180040e80 f   Modele_3D_sfun_registry.obj
 0001:0003fef0       ssGetZcSignalZcEvents      0000000180040ef0 f   Modele_3D_sfun_registry.obj
 0001:0003ff60       ssGetZcSignalType          0000000180040f60 f   Modele_3D_sfun_registry.obj
 0001:0003ffd0       ssGetZcSignalZcTol         0000000180040fd0 f   Modele_3D_sfun_registry.obj
 0001:00040050       ssGetZcSignalNeedsEventNotification 0000000180041050 f   Modele_3D_sfun_registry.obj
 0001:000400c0       ssGetZcSignalIsZcElementDisc 00000001800410c0 f   Modele_3D_sfun_registry.obj
 0001:00040160       ssGetIsInputPortElementContinuous 0000000180041160 f   Modele_3D_sfun_registry.obj
 0001:00040200       _ssGetAbsTol               0000000180041200 f   Modele_3D_sfun_registry.obj
 0001:00040270       _ssSetStateAbsTol          0000000180041270 f   Modele_3D_sfun_registry.obj
 0001:00040350       _ssSetInputPortReusableFcn 0000000180041350 f   Modele_3D_sfun_registry.obj
 0001:00040450       _ssSetOutputPortReusableFcn 0000000180041450 f   Modele_3D_sfun_registry.obj
 0001:00040550       _ssSetSymbolicDimsSupport  0000000180041550 f   Modele_3D_sfun_registry.obj
 0001:000405c0       _ssRegisterSymbolicDimsExpr 00000001800415c0 f   Modele_3D_sfun_registry.obj
 0001:00040640       _ssRegisterSymbolicDimsMATLABExpr 0000000180041640 f   Modele_3D_sfun_registry.obj
 0001:000406d0       _ssRegisterSymbolicDims    00000001800416d0 f   Modele_3D_sfun_registry.obj
 0001:00040770       _ssRegisterSymbolicDimsString 0000000180041770 f   Modele_3D_sfun_registry.obj
 0001:000407f0       _ssRegisterSymbolicDimsIntValue 00000001800417f0 f   Modele_3D_sfun_registry.obj
 0001:00040860       _ssRegisterSymbolicEqualRelation 0000000180041860 f   Modele_3D_sfun_registry.obj
 0001:000408d0       _ssRegisterSymbolicEqualValue 00000001800418d0 f   Modele_3D_sfun_registry.obj
 0001:00040940       _ssAmendLeadingSymbolicDims 0000000180041940 f   Modele_3D_sfun_registry.obj
 0001:000409c0       _ssAmendTrailingSymbolicDims 00000001800419c0 f   Modele_3D_sfun_registry.obj
 0001:00040a40       _ssRegisterSymbolicDimsPlus 0000000180041a40 f   Modele_3D_sfun_registry.obj
 0001:00040ac0       _ssRegisterSymbolicDimsMinus 0000000180041ac0 f   Modele_3D_sfun_registry.obj
 0001:00040b40       _ssRegisterSymbolicDimsMultiply 0000000180041b40 f   Modele_3D_sfun_registry.obj
 0001:00040bc0       _ssRegisterSymbolicDimsDivide 0000000180041bc0 f   Modele_3D_sfun_registry.obj
 0001:00040c40       _ssGetNumSymbolicDims      0000000180041c40 f   Modele_3D_sfun_registry.obj
 0001:00040cb0       _ssGetSymbolicDim          0000000180041cb0 f   Modele_3D_sfun_registry.obj
 0001:00040d30       _ssSetInputPortSymbolicDimsId 0000000180041d30 f   Modele_3D_sfun_registry.obj
 0001:00040da0       _ssGetCompInputPortSymbolicDimsId 0000000180041da0 f   Modele_3D_sfun_registry.obj
 0001:00040e10       _ssSetCompInputPortSymbolicDimsId 0000000180041e10 f   Modele_3D_sfun_registry.obj
 0001:00040e80       _ssSetOutputPortSymbolicDimsId 0000000180041e80 f   Modele_3D_sfun_registry.obj
 0001:00040ef0       _ssGetCompOutputPortSymbolicDimsId 0000000180041ef0 f   Modele_3D_sfun_registry.obj
 0001:00040f60       _ssSetCompOutputPortSymbolicDimsId 0000000180041f60 f   Modele_3D_sfun_registry.obj
 0001:00040fd0       _ssGetDWorkSymbolicDimsId  0000000180041fd0 f   Modele_3D_sfun_registry.obj
 0001:00041040       _ssSetDWorkSymbolicDimsId  0000000180042040 f   Modele_3D_sfun_registry.obj
 0001:000410b0       _ssGetCompDWorkSymbolicDimsId 00000001800420b0 f   Modele_3D_sfun_registry.obj
 0001:00041120       _ssSetCompDWorkSymbolicDimsId 0000000180042120 f   Modele_3D_sfun_registry.obj
 0001:00041190       _ssCreateSLCGStringBuffer  0000000180042190 f   Modele_3D_sfun_registry.obj
 0001:00041200       _ssAddToSLCGStringBuffer   0000000180042200 f   Modele_3D_sfun_registry.obj
 0001:00041270       _ssGetPointerContainedData 0000000180042270 f   Modele_3D_sfun_registry.obj
 0001:00041300       _ssGetPointerContainedDataWidth 0000000180042300 f   Modele_3D_sfun_registry.obj
 0001:00041390       _ssRegisterDynamicArrayDataTypeFcn 0000000180042390 f   Modele_3D_sfun_registry.obj
 0001:00041430       _ssGetDynamicArrayContainedDataCurrentWidthFcn 0000000180042430 f   Modele_3D_sfun_registry.obj
 0001:00041500       _ssGetDynamicArrayContainedDataFcn 0000000180042500 f   Modele_3D_sfun_registry.obj
 0001:000415d0       _ssGetInputPortDynamicArrayDataFcn 00000001800425d0 f   Modele_3D_sfun_registry.obj
 0001:00041690       _ssGetOutputPortDynamicArrayDataFcn 0000000180042690 f   Modele_3D_sfun_registry.obj
 0001:00041750       _ssGetInputPortDynamicArrayContainedDataFcn 0000000180042750 f   Modele_3D_sfun_registry.obj
 0001:00041810       _ssGetOutputPortDynamicArrayContainedDataFcn 0000000180042810 f   Modele_3D_sfun_registry.obj
 0001:000418d0       _ssGetDynamicArrayDWorkContainedDataFcn 00000001800428d0 f   Modele_3D_sfun_registry.obj
 0001:00041990       sf_process_check_sum_call  0000000180042990 f   Modele_3D_sfun_registry.obj
 0001:000419e0       sf_process_get_third_party_uses_info_call 00000001800429e0 f   Modele_3D_sfun_registry.obj
 0001:00041c10       sf_process_get_jit_fallback_info_call 0000000180042c10 f   Modele_3D_sfun_registry.obj
 0001:00041e40       sf_process_get_post_codegen_info_call 0000000180042e40 f   Modele_3D_sfun_registry.obj
 0001:00042070       sf_process_get_updateBuildInfo_args_info_call 0000000180043070 f   Modele_3D_sfun_registry.obj
 0001:000422a0       sf_process_get_eml_resolved_functions_info_call 00000001800432a0 f   Modele_3D_sfun_registry.obj
 0001:000424d0       sf_mex_unlock_call         00000001800434d0 f   Modele_3D_sfun_registry.obj
 0001:000426f0       sf_machine_global_initializer_called 00000001800436f0 f   Modele_3D_sfun_registry.obj
 0001:00042720       sf_machine_global_method_dispatcher 0000000180043720 f   Modele_3D_sfun_registry.obj
 0001:00042780       sf_machine_global_terminator 0000000180043780 f   Modele_3D_sfun_registry.obj
 0001:000427b0       callCustomFcn              00000001800437b0 f   Modele_3D_sfun_registry.obj
 0001:000427c0       sf_machine_global_initializer 00000001800437c0 f   Modele_3D_sfun_registry.obj
 0001:000427f0       mdlGetSimState             00000001800437f0 f   Modele_3D_sfun_registry.obj
 0001:00042830       mdlSetSimState             0000000180043830 f   Modele_3D_sfun_registry.obj
 0001:000431c0       ProcessMexSfunctionEveryCall 00000001800441c0 f   Modele_3D_sfun_registry.obj
 0001:00044340       __local_stdio_printf_options 0000000180045340 f i Modele_3D_sfun_registry.obj
 0001:00044350       _vsnprintf_l               0000000180045350 f i Modele_3D_sfun_registry.obj
 0001:000443d0       _vsprintf_l                00000001800453d0 f i Modele_3D_sfun_registry.obj
 0001:00044420       sprintf                    0000000180045420 f i Modele_3D_sfun_registry.obj
 0001:00044470       mexfilerequiredapiversion  0000000180045470 f   c_mexapi_version.obj
 0001:00044e40       ccdFirstDirDefault         0000000180045e40 f   ccd_ccd.obj
 0001:00044e80       __ccdSupport               0000000180045e80 f   ccd_ccd.obj
 0001:00044f60       ccdGJKIntersect            0000000180045f60 f   ccd_ccd.obj
 0001:00044ff0       __ccdGJK                   0000000180045ff0 f   ccd_ccd.obj
 0001:000451b0       ccdGJKSeparate             00000001800461b0 f   ccd_ccd.obj
 0001:00045250       ccdGJKPenetration          0000000180046250 f   ccd_ccd.obj
 0001:00049760       ccdMPRIntersect            000000018004a760 f   ccd_mpr.obj
 0001:00049830       ccdMPRPenetration          000000018004a830 f   ccd_mpr.obj
 0001:0004b330       ccdPtInit                  000000018004c330 f   ccd_polytope.obj
 0001:0004b3a0       ccdPtDestroy               000000018004c3a0 f   ccd_polytope.obj
 0001:0004b4f0       ccdPtAddVertex             000000018004c4f0 f   ccd_polytope.obj
 0001:0004b5c0       ccdPtAddEdge               000000018004c5c0 f   ccd_polytope.obj
 0001:0004b780       ccdPtAddFace               000000018004c780 f   ccd_polytope.obj
 0001:0004bc60       ccdPtRecomputeDistances    000000018004cc60 f   ccd_polytope.obj
 0001:0004bf50       ccdPtNearest               000000018004cf50 f   ccd_polytope.obj
 0001:0004bf90       ccdPtDumpSVT               000000018004cf90 f   ccd_polytope.obj
 0001:0004bff0       ccdPtDumpSVT2              000000018004cff0 f   ccd_polytope.obj
 0001:0004c4e0       _vfprintf_l                000000018004d4e0 f i ccd_polytope.obj
 0001:0004c530       fprintf                    000000018004d530 f i ccd_polytope.obj
 0001:0004ca70       ccdVec3PointSegmentDist2   000000018004da70 f   ccd_vec3.obj
 0001:0004cab0       ccdVec3PointTriDist2       000000018004dab0 f   ccd_vec3.obj
 0001:0004d9e0       ??RCollisionGeometryDeleter@shared_robotics@@QEAAXPEAVCollisionGeometry@1@@Z 000000018004e9e0 f   collisioncodegen_CollisionGeometry.obj
 0001:0004da30       ??1CollisionGeometry@shared_robotics@@UEAA@XZ 000000018004ea30 f   collisioncodegen_CollisionGeometry.obj
 0001:0004da90       ?support@CollisionGeometry@shared_robotics@@QEBAXPEBU_ccd_vec3_t@@PEAU3@@Z 000000018004ea90 f   collisioncodegen_CollisionGeometry.obj
 0001:0004e5e0       ?constructConnectionList@CollisionGeometry@shared_robotics@@IEAAXXZ 000000018004f5e0 f   collisioncodegen_CollisionGeometry.obj
 0001:0004eb60       ??$?0$$V@?$_Compressed_pair@V?$allocator@N@std@@V?$_Vector_val@U?$_Simple_types@N@std@@@2@$00@std@@QEAA@U_Zero_then_variadic_args_t@1@@Z 000000018004fb60 f i collisioncodegen_CollisionGeometry.obj
 0001:0004eb90       ??$?0$$V@?$_Compressed_pair@V?$allocator@_K@std@@V?$_Vector_val@U?$_Simple_types@_K@std@@@2@$00@std@@QEAA@U_Zero_then_variadic_args_t@1@@Z 000000018004fb90 f i collisioncodegen_CollisionGeometry.obj
 0001:0004ebc0       ??$?0AEAPEA_KAEAPEA_K$0A@@?$pair@PEA_KPEA_K@std@@QEAA@AEAPEA_K0@Z 000000018004fbc0 f i collisioncodegen_CollisionGeometry.obj
 0001:0004ec10       ??$?0V?$allocator@_K@std@@PEA_KPEA_KPEA_K@?$_Compressed_pair@V?$allocator@_K@std@@V?$_Vector_val@U?$_Simple_types@_K@std@@@2@$00@std@@QEAA@U_One_then_variadic_args_t@1@$$QEAV?$allocator@_K@1@$$QEAPEA_K22@Z 000000018004fc10 f i collisioncodegen_CollisionGeometry.obj
 0001:0004ec80       ??$?6U?$char_traits@D@std@@@std@@YAAEAV?$basic_ostream@DU?$char_traits@D@std@@@0@AEAV10@PEBD@Z 000000018004fc80 f i collisioncodegen_CollisionGeometry.obj
 0001:0004f030       ??$?RAEANAEAN@?$less@X@std@@QEBA_NAEAN0@Z 0000000180050030 f i collisioncodegen_CollisionGeometry.obj
 0001:0004f070       ??$?RAEA_KAEA_K@?$equal_to@X@std@@QEBA_NAEA_K0@Z 0000000180050070 f i collisioncodegen_CollisionGeometry.obj
 0001:0004f0b0       ??$?RAEA_KAEA_K@?$less@X@std@@QEBA_NAEA_K0@Z 00000001800500b0 f i collisioncodegen_CollisionGeometry.obj
 0001:0004f0f0       ??$_Adl_verify_range@V?$_Vector_iterator@V?$_Vector_val@U?$_Simple_types@N@std@@@std@@@std@@V12@@std@@YAXAEBV?$_Vector_iterator@V?$_Vector_val@U?$_Simple_types@N@std@@@std@@@0@0@Z 00000001800500f0 f i collisioncodegen_CollisionGeometry.obj
 0001:0004f100       ??$_Adl_verify_range@V?$_Vector_iterator@V?$_Vector_val@U?$_Simple_types@_K@std@@@std@@@std@@V12@@std@@YAXAEBV?$_Vector_iterator@V?$_Vector_val@U?$_Simple_types@_K@std@@@std@@@0@0@Z 0000000180050100 f i collisioncodegen_CollisionGeometry.obj
 0001:0004f110       ??$_Allocate@$0BA@U_Default_allocate_traits@std@@$0A@@std@@YAPEAX_K@Z 0000000180050110 f i collisioncodegen_CollisionGeometry.obj
 0001:0004f150       ??$_Allocate_manually_vector_aligned@U_Default_allocate_traits@std@@@std@@YAPEAX_K@Z 0000000180050150 f i collisioncodegen_CollisionGeometry.obj
 0001:0004f1e0       ??$_Copy_backward_memmove@PEA_KPEA_K@std@@YAPEA_KPEA_K00@Z 00000001800501e0 f i collisioncodegen_CollisionGeometry.obj
 0001:0004f290       ??$_Copy_memmove@PEANPEAN@std@@YAPEANPEAN00@Z 0000000180050290 f i collisioncodegen_CollisionGeometry.obj
 0001:0004f330       ??$_Copy_memmove@PEA_KPEA_K@std@@YAPEA_KPEA_K00@Z 0000000180050330 f i collisioncodegen_CollisionGeometry.obj
 0001:0004f3d0       ??$_Deallocate@$0BA@$0A@@std@@YAXPEAX_K@Z 00000001800503d0 f i collisioncodegen_CollisionGeometry.obj
 0001:0004f410       ??$_Destroy_range@V?$allocator@N@std@@@std@@YAXPEANQEANAEAV?$allocator@N@0@@Z 0000000180050410 f i collisioncodegen_CollisionGeometry.obj
 0001:0004f420       ??$_Destroy_range@V?$allocator@U_ccd_vec3_t@@@std@@@std@@YAXPEAU_ccd_vec3_t@@QEAU1@AEAV?$allocator@U_ccd_vec3_t@@@0@@Z 0000000180050420 f i collisioncodegen_CollisionGeometry.obj
 0001:0004f430       ??$_Destroy_range@V?$allocator@U_idx_vec3_t@shared_robotics@@@std@@@std@@YAXPEAU_idx_vec3_t@shared_robotics@@QEAU12@AEAV?$allocator@U_idx_vec3_t@shared_robotics@@@0@@Z 0000000180050430 f i collisioncodegen_CollisionGeometry.obj
 0001:0004f440       ??$_Destroy_range@V?$allocator@V?$vector@_KV?$allocator@_K@std@@@std@@@std@@@std@@YAXPEAV?$vector@_KV?$allocator@_K@std@@@0@QEAV10@AEAV?$allocator@V?$vector@_KV?$allocator@_K@std@@@std@@@0@@Z 0000000180050440 f i collisioncodegen_CollisionGeometry.obj
 0001:0004f490       ??$_Destroy_range@V?$allocator@_K@std@@@std@@YAXPEA_KQEA_KAEAV?$allocator@_K@0@@Z 0000000180050490 f i collisioncodegen_CollisionGeometry.obj
 0001:0004f4a0       ??$_Emplace_back@$$V@?$_Uninitialized_backout_al@V?$allocator@V?$vector@_KV?$allocator@_K@std@@@std@@@std@@@std@@QEAAXXZ 00000001800504a0 f i collisioncodegen_CollisionGeometry.obj
 0001:0004f4f0       ??$_Emplace_back@$$V@?$_Uninitialized_backout_al@V?$allocator@_K@std@@@std@@QEAAXXZ 00000001800504f0 f i collisioncodegen_CollisionGeometry.obj
 0001:0004f540       ??$_Emplace_back@N@?$_Uninitialized_backout_al@V?$allocator@N@std@@@std@@QEAAX$$QEAN@Z 0000000180050540 f i collisioncodegen_CollisionGeometry.obj
 0001:0004f5a0       ??$_Emplace_back@V?$vector@_KV?$allocator@_K@std@@@std@@@?$_Uninitialized_backout_al@V?$allocator@V?$vector@_KV?$allocator@_K@std@@@std@@@std@@@std@@QEAAX$$QEAV?$vector@_KV?$allocator@_K@std@@@1@@Z 00000001800505a0 f i collisioncodegen_CollisionGeometry.obj
 0001:0004f600       ??$_Emplace_back@_K@?$_Uninitialized_backout_al@V?$allocator@_K@std@@@std@@QEAAX$$QEA_K@Z 0000000180050600 f i collisioncodegen_CollisionGeometry.obj
 0001:0004f660       ??$_Emplace_back_with_unused_capacity@AEB_K@?$vector@_KV?$allocator@_K@std@@@std@@AEAA?A_TAEB_K@Z 0000000180050660 f i collisioncodegen_CollisionGeometry.obj
 0001:0004f710       ??$_Emplace_back_with_unused_capacity@N@?$vector@NV?$allocator@N@std@@@std@@AEAA?A_T$$QEAN@Z 0000000180050710 f i collisioncodegen_CollisionGeometry.obj
 0001:0004f7c0       ??$_Emplace_reallocate@AEB_K@?$vector@_KV?$allocator@_K@std@@@std@@QEAAPEA_KQEA_KAEB_K@Z 00000001800507c0 f i collisioncodegen_CollisionGeometry.obj
 0001:0004f9d0       ??$_Emplace_reallocate@N@?$vector@NV?$allocator@N@std@@@std@@QEAAPEANQEAN$$QEAN@Z 00000001800509d0 f i collisioncodegen_CollisionGeometry.obj
 0001:0004fbe0       ??$_Get_size_of_n@$07@std@@YA_K_K@Z 0000000180050be0 f i collisioncodegen_CollisionGeometry.obj
 0001:0004fc30       ??$_Get_size_of_n@$0BI@@std@@YA_K_K@Z 0000000180050c30 f i collisioncodegen_CollisionGeometry.obj
 0001:0004fc70       ??$_Get_unwrapped@AEAV?$_Vector_iterator@V?$_Vector_val@U?$_Simple_types@N@std@@@std@@@std@@@std@@YA?A_TAEAV?$_Vector_iterator@V?$_Vector_val@U?$_Simple_types@N@std@@@std@@@0@@Z 0000000180050c70 f i collisioncodegen_CollisionGeometry.obj
 0001:0004fc90       ??$_Get_unwrapped@AEAV?$_Vector_iterator@V?$_Vector_val@U?$_Simple_types@_K@std@@@std@@@std@@@std@@YA?A_TAEAV?$_Vector_iterator@V?$_Vector_val@U?$_Simple_types@_K@std@@@std@@@0@@Z 0000000180050c90 f i collisioncodegen_CollisionGeometry.obj
 0001:0004fcb0       ??$_Get_unwrapped@AEBQEAN@std@@YA?A_TAEBQEAN@Z 0000000180050cb0 f i collisioncodegen_CollisionGeometry.obj
 0001:0004fcc0       ??$_Get_unwrapped@AEBQEAV?$vector@_KV?$allocator@_K@std@@@std@@@std@@YA?A_TAEBQEAV?$vector@_KV?$allocator@_K@std@@@0@@Z 0000000180050cc0 f i collisioncodegen_CollisionGeometry.obj
 0001:0004fcd0       ??$_Get_unwrapped@AEBQEA_K@std@@YA?A_TAEBQEA_K@Z 0000000180050cd0 f i collisioncodegen_CollisionGeometry.obj
 0001:0004fce0       ??$_Get_unwrapped@AEBV?$_Vector_iterator@V?$_Vector_val@U?$_Simple_types@_K@std@@@std@@@std@@@std@@YA?A_TAEBV?$_Vector_iterator@V?$_Vector_val@U?$_Simple_types@_K@std@@@std@@@0@@Z 0000000180050ce0 f i collisioncodegen_CollisionGeometry.obj
 0001:0004fd00       ??$_Guess_median_unchecked@PEA_KU?$less@X@std@@@std@@YAXPEA_K00U?$less@X@0@@Z 0000000180050d00 f i collisioncodegen_CollisionGeometry.obj
 0001:0004fe60       ??$_Insertion_sort_unchecked@PEA_KU?$less@X@std@@@std@@YAPEA_KQEA_K0U?$less@X@0@@Z 0000000180050e60 f i collisioncodegen_CollisionGeometry.obj
 0001:0004ffa0       ??$_Make_heap_unchecked@PEA_KU?$less@X@std@@@std@@YAXPEA_K0U?$less@X@0@@Z 0000000180050fa0 f i collisioncodegen_CollisionGeometry.obj
 0001:00050040       ??$_Max_element_unchecked@PEANU?$less@X@std@@@std@@YAPEANPEAN0U?$less@X@0@@Z 0000000180051040 f i collisioncodegen_CollisionGeometry.obj
 0001:000500c0       ??$_Med3_unchecked@PEA_KU?$less@X@std@@@std@@YAXPEA_K00U?$less@X@0@@Z 00000001800510c0 f i collisioncodegen_CollisionGeometry.obj
 0001:00050160       ??$_Move_backward_unchecked@PEA_KPEA_K@std@@YAPEA_KPEA_K00@Z 0000000180051160 f i collisioncodegen_CollisionGeometry.obj
 0001:000501e0       ??$_Move_unchecked@PEA_KPEA_K@std@@YAPEA_KPEA_K00@Z 00000001800511e0 f i collisioncodegen_CollisionGeometry.obj
 0001:00050260       ??$_Next_iter@PEA_K@std@@YAPEA_KPEA_K@Z 0000000180051260 f i collisioncodegen_CollisionGeometry.obj
 0001:00050280       ??$_Partition_by_median_guess_unchecked@PEA_KU?$less@X@std@@@std@@YA?AU?$pair@PEA_KPEA_K@0@PEA_K0U?$less@X@0@@Z 0000000180051280 f i collisioncodegen_CollisionGeometry.obj
 0001:00050640       ??$_Pass_fn@U?$less@X@std@@$0A@@std@@YA?AU?$less@X@0@U10@@Z 0000000180051640 f i collisioncodegen_CollisionGeometry.obj
 0001:00050650       ??$_Pop_heap_hole_by_index@PEA_K_KU?$less@X@std@@@std@@YAXPEA_K_J1$$QEA_KU?$less@X@0@@Z 0000000180051650 f i collisioncodegen_CollisionGeometry.obj
 0001:000507b0       ??$_Pop_heap_hole_unchecked@PEA_K_KU?$less@X@std@@@std@@YAXPEA_K00$$QEA_KU?$less@X@0@@Z 00000001800517b0 f i collisioncodegen_CollisionGeometry.obj
 0001:00050820       ??$_Pop_heap_unchecked@PEA_KU?$less@X@std@@@std@@YAXPEA_K0U?$less@X@0@@Z 0000000180051820 f i collisioncodegen_CollisionGeometry.obj
 0001:000508a0       ??$_Prev_iter@PEA_K@std@@YAPEA_KPEA_K@Z 00000001800518a0 f i collisioncodegen_CollisionGeometry.obj
 0001:000508c0       ??$_Push_heap_by_index@PEA_K_KU?$less@X@std@@@std@@YAXPEA_K_J1$$QEA_KU?$less@X@0@@Z 00000001800518c0 f i collisioncodegen_CollisionGeometry.obj
 0001:00050980       ??$_Refancy@PEAN$0A@@std@@YAPEANPEAN@Z 0000000180051980 f i collisioncodegen_CollisionGeometry.obj
 0001:00050990       ??$_Refancy@PEA_K$0A@@std@@YAPEA_KPEA_K@Z 0000000180051990 f i collisioncodegen_CollisionGeometry.obj
 0001:000509a0       ??$_Resize@U_Value_init_tag@std@@@?$vector@V?$vector@_KV?$allocator@_K@std@@@std@@V?$allocator@V?$vector@_KV?$allocator@_K@std@@@std@@@2@@std@@AEAAX_KAEBU_Value_init_tag@1@@Z 00000001800519a0 f i collisioncodegen_CollisionGeometry.obj
 0001:00050b10       ??$_Resize@U_Value_init_tag@std@@@?$vector@_KV?$allocator@_K@std@@@std@@AEAAX_KAEBU_Value_init_tag@1@@Z 0000000180051b10 f i collisioncodegen_CollisionGeometry.obj
 0001:00050c80       ??$_Resize_reallocate@U_Value_init_tag@std@@@?$vector@V?$vector@_KV?$allocator@_K@std@@@std@@V?$allocator@V?$vector@_KV?$allocator@_K@std@@@std@@@2@@std@@AEAAX_KAEBU_Value_init_tag@1@@Z 0000000180051c80 f i collisioncodegen_CollisionGeometry.obj
 0001:00050de0       ??$_Resize_reallocate@U_Value_init_tag@std@@@?$vector@_KV?$allocator@_K@std@@@std@@AEAAX_KAEBU_Value_init_tag@1@@Z 0000000180051de0 f i collisioncodegen_CollisionGeometry.obj
 0001:00050f40       ??$_Seek_wrapped@V?$_Vector_iterator@V?$_Vector_val@U?$_Simple_types@N@std@@@std@@@std@@PEAN@std@@YAXAEAV?$_Vector_iterator@V?$_Vector_val@U?$_Simple_types@N@std@@@std@@@0@$$QEAPEAN@Z 0000000180051f40 f i collisioncodegen_CollisionGeometry.obj
 0001:00050f70       ??$_Seek_wrapped@V?$_Vector_iterator@V?$_Vector_val@U?$_Simple_types@_K@std@@@std@@@std@@AEAPEA_K@std@@YAXAEAV?$_Vector_iterator@V?$_Vector_val@U?$_Simple_types@_K@std@@@std@@@0@AEAPEA_K@Z 0000000180051f70 f i collisioncodegen_CollisionGeometry.obj
 0001:00050fa0       ??$_Seek_wrapped@V?$_Vector_iterator@V?$_Vector_val@U?$_Simple_types@_K@std@@@std@@@std@@AEBQEA_K@std@@YAXAEAV?$_Vector_iterator@V?$_Vector_val@U?$_Simple_types@_K@std@@@std@@@0@AEBQEA_K@Z 0000000180051fa0 f i collisioncodegen_CollisionGeometry.obj
 0001:00050fd0       ??$_Sort_heap_unchecked@PEA_KU?$less@X@std@@@std@@YAXPEA_K0U?$less@X@0@@Z 0000000180051fd0 f i collisioncodegen_CollisionGeometry.obj
 0001:00051030       ??$_Sort_unchecked@PEA_KU?$less@X@std@@@std@@YAXPEA_K0_JU?$less@X@0@@Z 0000000180052030 f i collisioncodegen_CollisionGeometry.obj
 0001:00051170       ??$_To_address@PEAN@std@@YA?A_PAEBQEAN@Z 0000000180052170 f i collisioncodegen_CollisionGeometry.obj
 0001:00051180       ??$_To_address@PEA_K@std@@YA?A_PAEBQEA_K@Z 0000000180052180 f i collisioncodegen_CollisionGeometry.obj
 0001:00051190       ??$_Unfancy@N@std@@YAPEANPEAN@Z 0000000180052190 f i collisioncodegen_CollisionGeometry.obj
 0001:000511a0       ??$_Unfancy@V?$vector@_KV?$allocator@_K@std@@@std@@@std@@YAPEAV?$vector@_KV?$allocator@_K@std@@@0@PEAV10@@Z 00000001800521a0 f i collisioncodegen_CollisionGeometry.obj
 0001:000511b0       ??$_Unfancy@_K@std@@YAPEA_KPEA_K@Z 00000001800521b0 f i collisioncodegen_CollisionGeometry.obj
 0001:000511c0       ??$_Uninitialized_move@PEANV?$allocator@N@std@@@std@@YAPEANQEAN0PEANAEAV?$allocator@N@0@@Z 00000001800521c0 f i collisioncodegen_CollisionGeometry.obj
 0001:000512a0       ??$_Uninitialized_move@PEAV?$vector@_KV?$allocator@_K@std@@@std@@V?$allocator@V?$vector@_KV?$allocator@_K@std@@@std@@@2@@std@@YAPEAV?$vector@_KV?$allocator@_K@std@@@0@QEAV10@0PEAV10@AEAV?$allocator@V?$vector@_KV?$allocator@_K@std@@@std@@@0@@Z 00000001800522a0 f i collisioncodegen_CollisionGeometry.obj
 0001:00051350       ??$_Uninitialized_move@PEA_KV?$allocator@_K@std@@@std@@YAPEA_KQEA_K0PEA_KAEAV?$allocator@_K@0@@Z 0000000180052350 f i collisioncodegen_CollisionGeometry.obj
 0001:00051430       ??$_Uninitialized_value_construct_n@V?$allocator@V?$vector@_KV?$allocator@_K@std@@@std@@@std@@@std@@YAPEAV?$vector@_KV?$allocator@_K@std@@@0@PEAV10@_KAEAV?$allocator@V?$vector@_KV?$allocator@_K@std@@@std@@@0@@Z 0000000180052430 f i collisioncodegen_CollisionGeometry.obj
 0001:000514a0       ??$_Uninitialized_value_construct_n@V?$allocator@_K@std@@@std@@YAPEA_KPEA_K_KAEAV?$allocator@_K@0@@Z 00000001800524a0 f i collisioncodegen_CollisionGeometry.obj
 0001:00051550       ??$_Voidify_iter@PEAN@std@@YAPEAXPEAN@Z 0000000180052550 f i collisioncodegen_CollisionGeometry.obj
 0001:00051560       ??$_Voidify_iter@PEAV?$vector@_KV?$allocator@_K@std@@@std@@@std@@YAPEAXPEAV?$vector@_KV?$allocator@_K@std@@@0@@Z 0000000180052560 f i collisioncodegen_CollisionGeometry.obj
 0001:00051570       ??$_Voidify_iter@PEA_K@std@@YAPEAXPEA_K@Z 0000000180052570 f i collisioncodegen_CollisionGeometry.obj
 0001:00051580       ??$_Zero_range@PEA_K@std@@YAPEA_KQEA_K0@Z 0000000180052580 f i collisioncodegen_CollisionGeometry.obj
 0001:000515e0       ??$addressof@V?$_Vector_val@U?$_Simple_types@N@std@@@std@@@std@@YAPEAV?$_Vector_val@U?$_Simple_types@N@std@@@0@AEAV10@@Z 00000001800525e0 f i collisioncodegen_CollisionGeometry.obj
 0001:000515f0       ??$addressof@V?$_Vector_val@U?$_Simple_types@_K@std@@@std@@@std@@YAPEAV?$_Vector_val@U?$_Simple_types@_K@std@@@0@AEAV10@@Z 00000001800525f0 f i collisioncodegen_CollisionGeometry.obj
 0001:00051600       ??$construct@NN@?$_Default_allocator_traits@V?$allocator@N@std@@@std@@SAXAEAV?$allocator@N@1@QEAN$$QEAN@Z 0000000180052600 f i collisioncodegen_CollisionGeometry.obj
 0001:00051650       ??$construct@V?$vector@_KV?$allocator@_K@std@@@std@@$$V@?$_Default_allocator_traits@V?$allocator@V?$vector@_KV?$allocator@_K@std@@@std@@@std@@@std@@SAXAEAV?$allocator@V?$vector@_KV?$allocator@_K@std@@@std@@@1@QEAV?$vector@_KV?$allocator@_K@std@@@1@@Z 0000000180052650 f i collisioncodegen_CollisionGeometry.obj
 0001:00051690       ??$construct@V?$vector@_KV?$allocator@_K@std@@@std@@V12@@?$_Default_allocator_traits@V?$allocator@V?$vector@_KV?$allocator@_K@std@@@std@@@std@@@std@@SAXAEAV?$allocator@V?$vector@_KV?$allocator@_K@std@@@std@@@1@QEAV?$vector@_KV?$allocator@_K@std@@@1@$$QEAV31@@Z 0000000180052690 f i collisioncodegen_CollisionGeometry.obj
 0001:000516e0       ??$construct@_K$$V@?$_Default_allocator_traits@V?$allocator@_K@std@@@std@@SAXAEAV?$allocator@_K@1@QEA_K@Z 00000001800526e0 f i collisioncodegen_CollisionGeometry.obj
 0001:00051730       ??$construct@_KAEB_K@?$_Default_allocator_traits@V?$allocator@_K@std@@@std@@SAXAEAV?$allocator@_K@1@QEA_KAEB_K@Z 0000000180052730 f i collisioncodegen_CollisionGeometry.obj
 0001:00051780       ??$construct@_K_K@?$_Default_allocator_traits@V?$allocator@_K@std@@@std@@SAXAEAV?$allocator@_K@1@QEA_K$$QEA_K@Z 0000000180052780 f i collisioncodegen_CollisionGeometry.obj
 0001:000517d0       ??$destroy@V?$vector@_KV?$allocator@_K@std@@@std@@@?$_Default_allocator_traits@V?$allocator@V?$vector@_KV?$allocator@_K@std@@@std@@@std@@@std@@SAXAEAV?$allocator@V?$vector@_KV?$allocator@_K@std@@@std@@@1@QEAV?$vector@_KV?$allocator@_K@std@@@1@@Z 00000001800527d0 f i collisioncodegen_CollisionGeometry.obj
 0001:000517f0       ??$emplace_back@AEB_K@?$vector@_KV?$allocator@_K@std@@@std@@QEAA?A_TAEB_K@Z 00000001800527f0 f i collisioncodegen_CollisionGeometry.obj
 0001:00051870       ??$emplace_back@N@?$vector@NV?$allocator@N@std@@@std@@QEAA?A_T$$QEAN@Z 0000000180052870 f i collisioncodegen_CollisionGeometry.obj
 0001:000518f0       ??$endl@DU?$char_traits@D@std@@@std@@YAAEAV?$basic_ostream@DU?$char_traits@D@std@@@0@AEAV10@@Z 00000001800528f0 f i collisioncodegen_CollisionGeometry.obj
 0001:00051940       ??$exchange@PEA_K$$T@std@@YAPEA_KAEAPEA_K$$QEA$$T@Z 0000000180052940 f i collisioncodegen_CollisionGeometry.obj
 0001:00051980       ??$forward@AEAPEA_K@std@@YAAEAPEA_KAEAPEA_K@Z 0000000180052980 f i collisioncodegen_CollisionGeometry.obj
 0001:00051990       ??$forward@AEBQEA_K@std@@YAAEBQEA_KAEBQEA_K@Z 0000000180052990 f i collisioncodegen_CollisionGeometry.obj
 0001:000519a0       ??$forward@AEB_K@std@@YAAEB_KAEB_K@Z 00000001800529a0 f i collisioncodegen_CollisionGeometry.obj
 0001:000519b0       ??$forward@N@std@@YA$$QEANAEAN@Z 00000001800529b0 f i collisioncodegen_CollisionGeometry.obj
 0001:000519c0       ??$forward@PEAN@std@@YA$$QEAPEANAEAPEAN@Z 00000001800529c0 f i collisioncodegen_CollisionGeometry.obj
 0001:000519d0       ??$forward@PEA_K@std@@YA$$QEAPEA_KAEAPEA_K@Z 00000001800529d0 f i collisioncodegen_CollisionGeometry.obj
 0001:000519e0       ??$forward@V?$allocator@_K@std@@@std@@YA$$QEAV?$allocator@_K@0@AEAV10@@Z 00000001800529e0 f i collisioncodegen_CollisionGeometry.obj
 0001:000519f0       ??$forward@V?$vector@_KV?$allocator@_K@std@@@std@@@std@@YA$$QEAV?$vector@_KV?$allocator@_K@std@@@0@AEAV10@@Z 00000001800529f0 f i collisioncodegen_CollisionGeometry.obj
 0001:00051a00       ??$forward@_K@std@@YA$$QEA_KAEA_K@Z 0000000180052a00 f i collisioncodegen_CollisionGeometry.obj
 0001:00051a10       ??$iter_swap@PEA_KPEA_K@std@@YAXPEA_K0@Z 0000000180052a10 f i collisioncodegen_CollisionGeometry.obj
 0001:00051a40       ??$max_element@V?$_Vector_iterator@V?$_Vector_val@U?$_Simple_types@N@std@@@std@@@std@@@std@@YA?AV?$_Vector_iterator@V?$_Vector_val@U?$_Simple_types@N@std@@@std@@@0@V10@0@Z 0000000180052a40 f i collisioncodegen_CollisionGeometry.obj
 0001:00051a90       ??$max_element@V?$_Vector_iterator@V?$_Vector_val@U?$_Simple_types@N@std@@@std@@@std@@U?$less@X@2@@std@@YA?AV?$_Vector_iterator@V?$_Vector_val@U?$_Simple_types@N@std@@@std@@@0@V10@0U?$less@X@0@@Z 0000000180052a90 f i collisioncodegen_CollisionGeometry.obj
 0001:00051b20       ??$min@_K@std@@YAAEB_KAEB_K0@Z 0000000180052b20 f i collisioncodegen_CollisionGeometry.obj
 0001:00051b70       ??$move@AEAN@std@@YA$$QEANAEAN@Z 0000000180052b70 f i collisioncodegen_CollisionGeometry.obj
 0001:00051b80       ??$move@AEAV?$allocator@_K@std@@@std@@YA$$QEAV?$allocator@_K@0@AEAV10@@Z 0000000180052b80 f i collisioncodegen_CollisionGeometry.obj
 0001:00051b90       ??$move@AEAV?$vector@_KV?$allocator@_K@std@@@std@@@std@@YA$$QEAV?$vector@_KV?$allocator@_K@std@@@0@AEAV10@@Z 0000000180052b90 f i collisioncodegen_CollisionGeometry.obj
 0001:00051ba0       ??$move@AEA_K@std@@YA$$QEA_KAEA_K@Z 0000000180052ba0 f i collisioncodegen_CollisionGeometry.obj
 0001:00051bb0       ??$sort@V?$_Vector_iterator@V?$_Vector_val@U?$_Simple_types@_K@std@@@std@@@std@@@std@@YAXV?$_Vector_iterator@V?$_Vector_val@U?$_Simple_types@_K@std@@@std@@@0@0@Z 0000000180052bb0 f i collisioncodegen_CollisionGeometry.obj
 0001:00051bf0       ??$sort@V?$_Vector_iterator@V?$_Vector_val@U?$_Simple_types@_K@std@@@std@@@std@@U?$less@X@2@@std@@YAXV?$_Vector_iterator@V?$_Vector_val@U?$_Simple_types@_K@std@@@std@@@0@0U?$less@X@0@@Z 0000000180052bf0 f i collisioncodegen_CollisionGeometry.obj
 0001:00051c70       ??$swap@_K$0A@@std@@YAXAEA_K0@Z 0000000180052c70 f i collisioncodegen_CollisionGeometry.obj
 0001:00051cc0       ??$unique@V?$_Vector_iterator@V?$_Vector_val@U?$_Simple_types@_K@std@@@std@@@std@@@std@@YA?AV?$_Vector_iterator@V?$_Vector_val@U?$_Simple_types@_K@std@@@std@@@0@V10@0@Z 0000000180052cc0 f i collisioncodegen_CollisionGeometry.obj
 0001:00051d10       ??$unique@V?$_Vector_iterator@V?$_Vector_val@U?$_Simple_types@_K@std@@@std@@@std@@U?$equal_to@X@2@@std@@YA?AV?$_Vector_iterator@V?$_Vector_val@U?$_Simple_types@_K@std@@@std@@@0@V10@0U?$equal_to@X@0@@Z 0000000180052d10 f i collisioncodegen_CollisionGeometry.obj
 0001:00051e70       ??0?$_Uninitialized_backout_al@V?$allocator@N@std@@@std@@QEAA@PEANAEAV?$allocator@N@1@@Z 0000000180052e70 f i collisioncodegen_CollisionGeometry.obj
 0001:00051eb0       ??0?$_Uninitialized_backout_al@V?$allocator@V?$vector@_KV?$allocator@_K@std@@@std@@@std@@@std@@QEAA@PEAV?$vector@_KV?$allocator@_K@std@@@1@AEAV?$allocator@V?$vector@_KV?$allocator@_K@std@@@std@@@1@@Z 0000000180052eb0 f i collisioncodegen_CollisionGeometry.obj
 0001:00051ef0       ??0?$_Uninitialized_backout_al@V?$allocator@_K@std@@@std@@QEAA@PEA_KAEAV?$allocator@_K@1@@Z 0000000180052ef0 f i collisioncodegen_CollisionGeometry.obj
 0001:00051f30       ??0?$_Vector_const_iterator@V?$_Vector_val@U?$_Simple_types@N@std@@@std@@@std@@QEAA@PEANPEBU_Container_base0@1@@Z 0000000180052f30 f i collisioncodegen_CollisionGeometry.obj
 0001:00051f70       ??0?$_Vector_const_iterator@V?$_Vector_val@U?$_Simple_types@_K@std@@@std@@@std@@QEAA@PEA_KPEBU_Container_base0@1@@Z 0000000180052f70 f i collisioncodegen_CollisionGeometry.obj
 0001:00051fb0       ??0?$_Vector_iterator@V?$_Vector_val@U?$_Simple_types@N@std@@@std@@@std@@QEAA@PEANPEBU_Container_base0@1@@Z 0000000180052fb0 f i collisioncodegen_CollisionGeometry.obj
 0001:00051ff0       ??0?$_Vector_iterator@V?$_Vector_val@U?$_Simple_types@_K@std@@@std@@@std@@QEAA@PEA_KPEBU_Container_base0@1@@Z 0000000180052ff0 f i collisioncodegen_CollisionGeometry.obj
 0001:00052030       ??0?$_Vector_val@U?$_Simple_types@N@std@@@std@@QEAA@XZ 0000000180053030 f i collisioncodegen_CollisionGeometry.obj
 0001:00052070       ??0?$_Vector_val@U?$_Simple_types@_K@std@@@std@@QEAA@PEA_K00@Z 0000000180053070 f i collisioncodegen_CollisionGeometry.obj
 0001:000520c0       ??0?$_Vector_val@U?$_Simple_types@_K@std@@@std@@QEAA@XZ 00000001800530c0 f i collisioncodegen_CollisionGeometry.obj
 0001:00052100       ??0?$allocator@N@std@@QEAA@XZ 0000000180053100 f i collisioncodegen_CollisionGeometry.obj
 0001:00052110       ??0?$allocator@_K@std@@QEAA@XZ 0000000180053110 f i collisioncodegen_CollisionGeometry.obj
 0001:00052120       ??0?$vector@NV?$allocator@N@std@@@std@@QEAA@XZ 0000000180053120 f i collisioncodegen_CollisionGeometry.obj
 0001:00052160       ??0?$vector@_KV?$allocator@_K@std@@@std@@QEAA@$$QEAV01@@Z 0000000180053160 f i collisioncodegen_CollisionGeometry.obj
 0001:00052260       ??0?$vector@_KV?$allocator@_K@std@@@std@@QEAA@XZ 0000000180053260 f i collisioncodegen_CollisionGeometry.obj
 0001:000522a0       ??0_Sentry_base@?$basic_ostream@DU?$char_traits@D@std@@@std@@QEAA@AEAV12@@Z 00000001800532a0 f i collisioncodegen_CollisionGeometry.obj
 0001:00052310       ??0bad_alloc@std@@AEAA@QEBD@Z 0000000180053310 f i collisioncodegen_CollisionGeometry.obj
 0001:00052350       ??0bad_alloc@std@@QEAA@AEBV01@@Z 0000000180053350 f i collisioncodegen_CollisionGeometry.obj
 0001:00052390       ??0bad_array_new_length@std@@QEAA@AEBV01@@Z 0000000180053390 f i collisioncodegen_CollisionGeometry.obj
 0001:000523d0       ??0bad_array_new_length@std@@QEAA@XZ 00000001800533d0 f i collisioncodegen_CollisionGeometry.obj
 0001:00052410       ??0exception@std@@QEAA@AEBV01@@Z 0000000180053410 f i collisioncodegen_CollisionGeometry.obj
 0001:00052470       ??0exception@std@@QEAA@QEBDH@Z 0000000180053470 f i collisioncodegen_CollisionGeometry.obj
 0001:000524c0       ??0sentry@?$basic_ostream@DU?$char_traits@D@std@@@std@@QEAA@AEAV12@@Z 00000001800534c0 f i collisioncodegen_CollisionGeometry.obj
 0001:000525a0       ??1?$_Uninitialized_backout_al@V?$allocator@N@std@@@std@@QEAA@XZ 00000001800535a0 f i collisioncodegen_CollisionGeometry.obj
 0001:000525d0       ??1?$_Uninitialized_backout_al@V?$allocator@V?$vector@_KV?$allocator@_K@std@@@std@@@std@@@std@@QEAA@XZ 00000001800535d0 f i collisioncodegen_CollisionGeometry.obj
 0001:00052600       ??1?$_Uninitialized_backout_al@V?$allocator@_K@std@@@std@@QEAA@XZ 0000000180053600 f i collisioncodegen_CollisionGeometry.obj
 0001:00052630       ??1?$vector@NV?$allocator@N@std@@@std@@QEAA@XZ 0000000180053630 f i collisioncodegen_CollisionGeometry.obj
 0001:00052650       ??1?$vector@U_ccd_vec3_t@@V?$allocator@U_ccd_vec3_t@@@std@@@std@@QEAA@XZ 0000000180053650 f i collisioncodegen_CollisionGeometry.obj
 0001:00052670       ??1?$vector@U_idx_vec3_t@shared_robotics@@V?$allocator@U_idx_vec3_t@shared_robotics@@@std@@@std@@QEAA@XZ 0000000180053670 f i collisioncodegen_CollisionGeometry.obj
 0001:00052690       ??1?$vector@V?$vector@_KV?$allocator@_K@std@@@std@@V?$allocator@V?$vector@_KV?$allocator@_K@std@@@std@@@2@@std@@QEAA@XZ 0000000180053690 f i collisioncodegen_CollisionGeometry.obj
 0001:000526b0       ??1?$vector@_KV?$allocator@_K@std@@@std@@QEAA@XZ 00000001800536b0 f i collisioncodegen_CollisionGeometry.obj
 0001:000526d0       ??1_Sentry_base@?$basic_ostream@DU?$char_traits@D@std@@@std@@QEAA@XZ 00000001800536d0 f i collisioncodegen_CollisionGeometry.obj
 0001:00052730       ??1bad_alloc@std@@UEAA@XZ  0000000180053730 f i collisioncodegen_CollisionGeometry.obj
 0001:00052750       ??1bad_array_new_length@std@@UEAA@XZ 0000000180053750 f i collisioncodegen_CollisionGeometry.obj
 0001:00052770       ??1exception@std@@UEAA@XZ  0000000180053770 f i collisioncodegen_CollisionGeometry.obj
 0001:000527a0       ??1sentry@?$basic_ostream@DU?$char_traits@D@std@@@std@@QEAA@XZ 00000001800537a0 f i collisioncodegen_CollisionGeometry.obj
 0001:00052800       ??2@YAPEAX_KPEAX@Z         0000000180053800 f i collisioncodegen_CollisionGeometry.obj
 0001:00052810       ??A?$vector@U_ccd_vec3_t@@V?$allocator@U_ccd_vec3_t@@@std@@@std@@QEBAAEBU_ccd_vec3_t@@_K@Z 0000000180053810 f i collisioncodegen_CollisionGeometry.obj
 0001:00052840       ??A?$vector@U_idx_vec3_t@shared_robotics@@V?$allocator@U_idx_vec3_t@shared_robotics@@@std@@@std@@QEAAAEAU_idx_vec3_t@shared_robotics@@_K@Z 0000000180053840 f i collisioncodegen_CollisionGeometry.obj
 0001:00052870       ??A?$vector@V?$vector@_KV?$allocator@_K@std@@@std@@V?$allocator@V?$vector@_KV?$allocator@_K@std@@@std@@@2@@std@@QEAAAEAV?$vector@_KV?$allocator@_K@std@@@1@_K@Z 0000000180053870 f i collisioncodegen_CollisionGeometry.obj
 0001:000528a0       ??A?$vector@V?$vector@_KV?$allocator@_K@std@@@std@@V?$allocator@V?$vector@_KV?$allocator@_K@std@@@std@@@2@@std@@QEBAAEBV?$vector@_KV?$allocator@_K@std@@@1@_K@Z 00000001800538a0 f i collisioncodegen_CollisionGeometry.obj
 0001:000528d0       ??A?$vector@_KV?$allocator@_K@std@@@std@@QEBAAEB_K_K@Z 00000001800538d0 f i collisioncodegen_CollisionGeometry.obj
 0001:00052900       ??Bsentry@?$basic_ostream@DU?$char_traits@D@std@@@std@@QEBA_NXZ 0000000180053900 f i collisioncodegen_CollisionGeometry.obj
 0001:00052910       ??G?$_Vector_const_iterator@V?$_Vector_val@U?$_Simple_types@N@std@@@std@@@std@@QEBA_JAEBV01@@Z 0000000180053910 f i collisioncodegen_CollisionGeometry.obj
 0001:00052950       ??_G?$vector@_KV?$allocator@_K@std@@@std@@QEAAPEAXI@Z 0000000180053950 f i collisioncodegen_CollisionGeometry.obj
 0001:00052990       ??_GCollisionGeometry@shared_robotics@@UEAAPEAXI@Z 0000000180053990 f i collisioncodegen_CollisionGeometry.obj
 0001:00052990       ??_ECollisionGeometry@shared_robotics@@UEAAPEAXI@Z 0000000180053990 f i collisioncodegen_CollisionGeometry.obj
 0001:000529d0       ??_Gbad_alloc@std@@UEAAPEAXI@Z 00000001800539d0 f i collisioncodegen_CollisionGeometry.obj
 0001:000529d0       ??_Ebad_alloc@std@@UEAAPEAXI@Z 00000001800539d0 f i collisioncodegen_CollisionGeometry.obj
 0001:00052a10       ??_Gbad_array_new_length@std@@UEAAPEAXI@Z 0000000180053a10 f i collisioncodegen_CollisionGeometry.obj
 0001:00052a10       ??_Ebad_array_new_length@std@@UEAAPEAXI@Z 0000000180053a10 f i collisioncodegen_CollisionGeometry.obj
 0001:00052a50       ??_Eexception@std@@UEAAPEAXI@Z 0000000180053a50 f i collisioncodegen_CollisionGeometry.obj
 0001:00052a50       ??_Gexception@std@@UEAAPEAXI@Z 0000000180053a50 f i collisioncodegen_CollisionGeometry.obj
 0001:00052a90       ?_Adjust_manually_vector_aligned@std@@YAXAEAPEAXAEA_K@Z 0000000180053a90 f i collisioncodegen_CollisionGeometry.obj
 0001:00052b30       ?_Adopt@_Iterator_base0@std@@QEAAXPEBX@Z 0000000180053b30 f i collisioncodegen_CollisionGeometry.obj
 0001:00052b40       ?_Alloc_proxy@_Container_base0@std@@QEAAXAEBU_Fake_allocator@2@@Z 0000000180053b40 f i collisioncodegen_CollisionGeometry.obj
 0001:00052b50       ?_Allocate@_Default_allocate_traits@std@@SAPEAX_K@Z 0000000180053b50 f i collisioncodegen_CollisionGeometry.obj
 0001:00052b70       ?_Calculate_growth@?$vector@NV?$allocator@N@std@@@std@@AEBA_K_K@Z 0000000180053b70 f i collisioncodegen_CollisionGeometry.obj
 0001:00052c00       ?_Calculate_growth@?$vector@V?$vector@_KV?$allocator@_K@std@@@std@@V?$allocator@V?$vector@_KV?$allocator@_K@std@@@std@@@2@@std@@AEBA_K_K@Z 0000000180053c00 f i collisioncodegen_CollisionGeometry.obj
 0001:00052c90       ?_Calculate_growth@?$vector@_KV?$allocator@_K@std@@@std@@AEBA_K_K@Z 0000000180053c90 f i collisioncodegen_CollisionGeometry.obj
 0001:00052d20       ?_Change_array@?$vector@NV?$allocator@N@std@@@std@@AEAAXQEAN_K1@Z 0000000180053d20 f i collisioncodegen_CollisionGeometry.obj
 0001:00052e20       ?_Change_array@?$vector@V?$vector@_KV?$allocator@_K@std@@@std@@V?$allocator@V?$vector@_KV?$allocator@_K@std@@@std@@@2@@std@@AEAAXQEAV?$vector@_KV?$allocator@_K@std@@@2@_K1@Z 0000000180053e20 f i collisioncodegen_CollisionGeometry.obj
 0001:00052f20       ?_Change_array@?$vector@_KV?$allocator@_K@std@@@std@@AEAAXQEA_K_K1@Z 0000000180053f20 f i collisioncodegen_CollisionGeometry.obj
 0001:00053020       ?_Compat@?$_Vector_const_iterator@V?$_Vector_val@U?$_Simple_types@N@std@@@std@@@std@@QEBAXAEBV12@@Z 0000000180054020 f i collisioncodegen_CollisionGeometry.obj
 0001:00053030       ?_Destroy@?$vector@NV?$allocator@N@std@@@std@@AEAAXPEAN0@Z 0000000180054030 f i collisioncodegen_CollisionGeometry.obj
 0001:00053070       ?_Destroy@?$vector@U_ccd_vec3_t@@V?$allocator@U_ccd_vec3_t@@@std@@@std@@AEAAXPEAU_ccd_vec3_t@@0@Z 0000000180054070 f i collisioncodegen_CollisionGeometry.obj
 0001:000530b0       ?_Destroy@?$vector@U_idx_vec3_t@shared_robotics@@V?$allocator@U_idx_vec3_t@shared_robotics@@@std@@@std@@AEAAXPEAU_idx_vec3_t@shared_robotics@@0@Z 00000001800540b0 f i collisioncodegen_CollisionGeometry.obj
 0001:000530f0       ?_Destroy@?$vector@V?$vector@_KV?$allocator@_K@std@@@std@@V?$allocator@V?$vector@_KV?$allocator@_K@std@@@std@@@2@@std@@AEAAXPEAV?$vector@_KV?$allocator@_K@std@@@2@0@Z 00000001800540f0 f i collisioncodegen_CollisionGeometry.obj
 0001:00053130       ?_Destroy@?$vector@_KV?$allocator@_K@std@@@std@@AEAAXPEA_K0@Z 0000000180054130 f i collisioncodegen_CollisionGeometry.obj
 0001:00053170       ?_Get_first@?$_Compressed_pair@V?$allocator@N@std@@V?$_Vector_val@U?$_Simple_types@N@std@@@2@$00@std@@QEAAAEAV?$allocator@N@2@XZ 0000000180054170 f i collisioncodegen_CollisionGeometry.obj
 0001:00053180       ?_Get_first@?$_Compressed_pair@V?$allocator@N@std@@V?$_Vector_val@U?$_Simple_types@N@std@@@2@$00@std@@QEBAAEBV?$allocator@N@2@XZ 0000000180054180 f i collisioncodegen_CollisionGeometry.obj
 0001:00053190       ?_Get_first@?$_Compressed_pair@V?$allocator@U_ccd_vec3_t@@@std@@V?$_Vector_val@U?$_Simple_types@U_ccd_vec3_t@@@std@@@2@$00@std@@QEAAAEAV?$allocator@U_ccd_vec3_t@@@2@XZ 0000000180054190 f i collisioncodegen_CollisionGeometry.obj
 0001:000531a0       ?_Get_first@?$_Compressed_pair@V?$allocator@U_idx_vec3_t@shared_robotics@@@std@@V?$_Vector_val@U?$_Simple_types@U_idx_vec3_t@shared_robotics@@@std@@@2@$00@std@@QEAAAEAV?$allocator@U_idx_vec3_t@shared_robotics@@@2@XZ 00000001800541a0 f i collisioncodegen_CollisionGeometry.obj
 0001:000531b0       ?_Get_first@?$_Compressed_pair@V?$allocator@V?$vector@_KV?$allocator@_K@std@@@std@@@std@@V?$_Vector_val@U?$_Simple_types@V?$vector@_KV?$allocator@_K@std@@@std@@@std@@@2@$00@std@@QEAAAEAV?$allocator@V?$vector@_KV?$allocator@_K@std@@@std@@@2@XZ 00000001800541b0 f i collisioncodegen_CollisionGeometry.obj
 0001:000531c0       ?_Get_first@?$_Compressed_pair@V?$allocator@V?$vector@_KV?$allocator@_K@std@@@std@@@std@@V?$_Vector_val@U?$_Simple_types@V?$vector@_KV?$allocator@_K@std@@@std@@@std@@@2@$00@std@@QEBAAEBV?$allocator@V?$vector@_KV?$allocator@_K@std@@@std@@@2@XZ 00000001800541c0 f i collisioncodegen_CollisionGeometry.obj
 0001:000531d0       ?_Get_first@?$_Compressed_pair@V?$allocator@_K@std@@V?$_Vector_val@U?$_Simple_types@_K@std@@@2@$00@std@@QEAAAEAV?$allocator@_K@2@XZ 00000001800541d0 f i collisioncodegen_CollisionGeometry.obj
 0001:000531e0       ?_Get_first@?$_Compressed_pair@V?$allocator@_K@std@@V?$_Vector_val@U?$_Simple_types@_K@std@@@2@$00@std@@QEBAAEBV?$allocator@_K@2@XZ 00000001800541e0 f i collisioncodegen_CollisionGeometry.obj
 0001:000531f0       ?_Getal@?$vector@NV?$allocator@N@std@@@std@@AEAAAEAV?$allocator@N@2@XZ 00000001800541f0 f i collisioncodegen_CollisionGeometry.obj
 0001:00053210       ?_Getal@?$vector@NV?$allocator@N@std@@@std@@AEBAAEBV?$allocator@N@2@XZ 0000000180054210 f i collisioncodegen_CollisionGeometry.obj
 0001:00053230       ?_Getal@?$vector@U_ccd_vec3_t@@V?$allocator@U_ccd_vec3_t@@@std@@@std@@AEAAAEAV?$allocator@U_ccd_vec3_t@@@2@XZ 0000000180054230 f i collisioncodegen_CollisionGeometry.obj
 0001:00053250       ?_Getal@?$vector@U_idx_vec3_t@shared_robotics@@V?$allocator@U_idx_vec3_t@shared_robotics@@@std@@@std@@AEAAAEAV?$allocator@U_idx_vec3_t@shared_robotics@@@2@XZ 0000000180054250 f i collisioncodegen_CollisionGeometry.obj
 0001:00053270       ?_Getal@?$vector@V?$vector@_KV?$allocator@_K@std@@@std@@V?$allocator@V?$vector@_KV?$allocator@_K@std@@@std@@@2@@std@@AEAAAEAV?$allocator@V?$vector@_KV?$allocator@_K@std@@@std@@@2@XZ 0000000180054270 f i collisioncodegen_CollisionGeometry.obj
 0001:00053290       ?_Getal@?$vector@V?$vector@_KV?$allocator@_K@std@@@std@@V?$allocator@V?$vector@_KV?$allocator@_K@std@@@std@@@2@@std@@AEBAAEBV?$allocator@V?$vector@_KV?$allocator@_K@std@@@std@@@2@XZ 0000000180054290 f i collisioncodegen_CollisionGeometry.obj
 0001:000532b0       ?_Getal@?$vector@_KV?$allocator@_K@std@@@std@@AEAAAEAV?$allocator@_K@2@XZ 00000001800542b0 f i collisioncodegen_CollisionGeometry.obj
 0001:000532d0       ?_Getal@?$vector@_KV?$allocator@_K@std@@@std@@AEBAAEBV?$allocator@_K@2@XZ 00000001800542d0 f i collisioncodegen_CollisionGeometry.obj
 0001:000532f0       ?_Orphan_all@_Container_base0@std@@QEAAXXZ 00000001800542f0 f i collisioncodegen_CollisionGeometry.obj
 0001:00053300       ?_Orphan_range@?$vector@NV?$allocator@N@std@@@std@@AEBAXPEAN0@Z 0000000180054300 f i collisioncodegen_CollisionGeometry.obj
 0001:00053310       ?_Orphan_range@?$vector@V?$vector@_KV?$allocator@_K@std@@@std@@V?$allocator@V?$vector@_KV?$allocator@_K@std@@@std@@@2@@std@@AEBAXPEAV?$vector@_KV?$allocator@_K@std@@@2@0@Z 0000000180054310 f i collisioncodegen_CollisionGeometry.obj
 0001:00053320       ?_Orphan_range@?$vector@_KV?$allocator@_K@std@@@std@@AEBAXPEA_K0@Z 0000000180054320 f i collisioncodegen_CollisionGeometry.obj
 0001:00053330       ?_Release@?$_Uninitialized_backout_al@V?$allocator@N@std@@@std@@QEAAPEANXZ 0000000180054330 f i collisioncodegen_CollisionGeometry.obj
 0001:00053350       ?_Release@?$_Uninitialized_backout_al@V?$allocator@V?$vector@_KV?$allocator@_K@std@@@std@@@std@@@std@@QEAAPEAV?$vector@_KV?$allocator@_K@std@@@2@XZ 0000000180054350 f i collisioncodegen_CollisionGeometry.obj
 0001:00053370       ?_Release@?$_Uninitialized_backout_al@V?$allocator@_K@std@@@std@@QEAAPEA_KXZ 0000000180054370 f i collisioncodegen_CollisionGeometry.obj
 0001:00053390       ?_Seek_to@?$_Vector_const_iterator@V?$_Vector_val@U?$_Simple_types@N@std@@@std@@@std@@QEAAXPEBN@Z 0000000180054390 f i collisioncodegen_CollisionGeometry.obj
 0001:000533c0       ?_Seek_to@?$_Vector_const_iterator@V?$_Vector_val@U?$_Simple_types@_K@std@@@std@@@std@@QEAAXPEB_K@Z 00000001800543c0 f i collisioncodegen_CollisionGeometry.obj
 0001:000533f0       ?_Swap_proxy_and_iterators@_Container_base0@std@@QEAAXAEAU12@@Z 00000001800543f0 f i collisioncodegen_CollisionGeometry.obj
 0001:00053400       ?_Throw_bad_array_new_length@std@@YAXXZ 0000000180054400 f i collisioncodegen_CollisionGeometry.obj
 0001:00053430       ?_Tidy@?$vector@NV?$allocator@N@std@@@std@@AEAAXXZ 0000000180054430 f i collisioncodegen_CollisionGeometry.obj
 0001:00053500       ?_Tidy@?$vector@U_ccd_vec3_t@@V?$allocator@U_ccd_vec3_t@@@std@@@std@@AEAAXXZ 0000000180054500 f i collisioncodegen_CollisionGeometry.obj
 0001:000535e0       ?_Tidy@?$vector@U_idx_vec3_t@shared_robotics@@V?$allocator@U_idx_vec3_t@shared_robotics@@@std@@@std@@AEAAXXZ 00000001800545e0 f i collisioncodegen_CollisionGeometry.obj
 0001:000536c0       ?_Tidy@?$vector@V?$vector@_KV?$allocator@_K@std@@@std@@V?$allocator@V?$vector@_KV?$allocator@_K@std@@@std@@@2@@std@@AEAAXXZ 00000001800546c0 f i collisioncodegen_CollisionGeometry.obj
 0001:000537a0       ?_Tidy@?$vector@_KV?$allocator@_K@std@@@std@@AEAAXXZ 00000001800547a0 f i collisioncodegen_CollisionGeometry.obj
 0001:00053870       ?_Ufill@?$vector@V?$vector@_KV?$allocator@_K@std@@@std@@V?$allocator@V?$vector@_KV?$allocator@_K@std@@@std@@@2@@std@@AEAAPEAV?$vector@_KV?$allocator@_K@std@@@2@PEAV32@_KU_Value_init_tag@2@@Z 0000000180054870 f i collisioncodegen_CollisionGeometry.obj
 0001:000538b0       ?_Ufill@?$vector@_KV?$allocator@_K@std@@@std@@AEAAPEA_KPEA_K_KU_Value_init_tag@2@@Z 00000001800548b0 f i collisioncodegen_CollisionGeometry.obj
 0001:000538f0       ?_Umove@?$vector@NV?$allocator@N@std@@@std@@AEAAPEANPEAN00@Z 00000001800548f0 f i collisioncodegen_CollisionGeometry.obj
 0001:00053930       ?_Umove@?$vector@_KV?$allocator@_K@std@@@std@@AEAAPEA_KPEA_K00@Z 0000000180054930 f i collisioncodegen_CollisionGeometry.obj
 0001:00053970       ?_Umove_if_noexcept1@?$vector@NV?$allocator@N@std@@@std@@AEAAXPEAN00U?$integral_constant@_N$00@2@@Z 0000000180054970 f i collisioncodegen_CollisionGeometry.obj
 0001:000539b0       ?_Umove_if_noexcept1@?$vector@V?$vector@_KV?$allocator@_K@std@@@std@@V?$allocator@V?$vector@_KV?$allocator@_K@std@@@std@@@2@@std@@AEAAXPEAV?$vector@_KV?$allocator@_K@std@@@2@00U?$integral_constant@_N$00@2@@Z 00000001800549b0 f i collisioncodegen_CollisionGeometry.obj
 0001:000539f0       ?_Umove_if_noexcept1@?$vector@_KV?$allocator@_K@std@@@std@@AEAAXPEA_K00U?$integral_constant@_N$00@2@@Z 00000001800549f0 f i collisioncodegen_CollisionGeometry.obj
 0001:00053a30       ?_Umove_if_noexcept@?$vector@NV?$allocator@N@std@@@std@@AEAAXPEAN00@Z 0000000180054a30 f i collisioncodegen_CollisionGeometry.obj
 0001:00053a90       ?_Umove_if_noexcept@?$vector@V?$vector@_KV?$allocator@_K@std@@@std@@V?$allocator@V?$vector@_KV?$allocator@_K@std@@@std@@@2@@std@@AEAAXPEAV?$vector@_KV?$allocator@_K@std@@@2@00@Z 0000000180054a90 f i collisioncodegen_CollisionGeometry.obj
 0001:00053af0       ?_Umove_if_noexcept@?$vector@_KV?$allocator@_K@std@@@std@@AEAAXPEA_K00@Z 0000000180054af0 f i collisioncodegen_CollisionGeometry.obj
 0001:00053b50       ?_Unchecked_begin@?$vector@U_ccd_vec3_t@@V?$allocator@U_ccd_vec3_t@@@std@@@std@@QEBAPEBU_ccd_vec3_t@@XZ 0000000180054b50 f i collisioncodegen_CollisionGeometry.obj
 0001:00053b60       ?_Unchecked_end@?$vector@U_ccd_vec3_t@@V?$allocator@U_ccd_vec3_t@@@std@@@std@@QEBAPEBU_ccd_vec3_t@@XZ 0000000180054b60 f i collisioncodegen_CollisionGeometry.obj
 0001:00053b70       ?_Unwrapped@?$_Vector_iterator@V?$_Vector_val@U?$_Simple_types@N@std@@@std@@@std@@QEBAPEANXZ 0000000180054b70 f i collisioncodegen_CollisionGeometry.obj
 0001:00053b90       ?_Unwrapped@?$_Vector_iterator@V?$_Vector_val@U?$_Simple_types@_K@std@@@std@@@std@@QEBAPEA_KXZ 0000000180054b90 f i collisioncodegen_CollisionGeometry.obj
 0001:00053bb0       ?_Xlength@?$vector@NV?$allocator@N@std@@@std@@CAXXZ 0000000180054bb0 f i collisioncodegen_CollisionGeometry.obj
 0001:00053bd0       ?_Xlength@?$vector@V?$vector@_KV?$allocator@_K@std@@@std@@V?$allocator@V?$vector@_KV?$allocator@_K@std@@@std@@@2@@std@@CAXXZ 0000000180054bd0 f i collisioncodegen_CollisionGeometry.obj
 0001:00053bf0       ?_Xlength@?$vector@_KV?$allocator@_K@std@@@std@@CAXXZ 0000000180054bf0 f i collisioncodegen_CollisionGeometry.obj
 0001:00053c10       ?allocate@?$allocator@N@std@@QEAAPEAN_K@Z 0000000180054c10 f i collisioncodegen_CollisionGeometry.obj
 0001:00053c40       ?allocate@?$allocator@V?$vector@_KV?$allocator@_K@std@@@std@@@std@@QEAAPEAV?$vector@_KV?$allocator@_K@std@@@2@_K@Z 0000000180054c40 f i collisioncodegen_CollisionGeometry.obj
 0001:00053c70       ?allocate@?$allocator@_K@std@@QEAAPEA_K_K@Z 0000000180054c70 f i collisioncodegen_CollisionGeometry.obj
 0001:00053ca0       ?begin@?$vector@NV?$allocator@N@std@@@std@@QEAA?AV?$_Vector_iterator@V?$_Vector_val@U?$_Simple_types@N@std@@@std@@@2@XZ 0000000180054ca0 f i collisioncodegen_CollisionGeometry.obj
 0001:00053cf0       ?begin@?$vector@_KV?$allocator@_K@std@@@std@@QEAA?AV?$_Vector_iterator@V?$_Vector_val@U?$_Simple_types@_K@std@@@std@@@2@XZ 0000000180054cf0 f i collisioncodegen_CollisionGeometry.obj
 0001:00053d40       ?capacity@?$vector@NV?$allocator@N@std@@@std@@QEBA_KXZ 0000000180054d40 f i collisioncodegen_CollisionGeometry.obj
 0001:00053d70       ?capacity@?$vector@V?$vector@_KV?$allocator@_K@std@@@std@@V?$allocator@V?$vector@_KV?$allocator@_K@std@@@std@@@2@@std@@QEBA_KXZ 0000000180054d70 f i collisioncodegen_CollisionGeometry.obj
 0001:00053db0       ?capacity@?$vector@_KV?$allocator@_K@std@@@std@@QEBA_KXZ 0000000180054db0 f i collisioncodegen_CollisionGeometry.obj
 0001:00053de0       ?clear@?$vector@_KV?$allocator@_K@std@@@std@@QEAAXXZ 0000000180054de0 f i collisioncodegen_CollisionGeometry.obj
 0001:00053e50       ?deallocate@?$allocator@N@std@@QEAAXQEAN_K@Z 0000000180054e50 f i collisioncodegen_CollisionGeometry.obj
 0001:00053e80       ?deallocate@?$allocator@U_ccd_vec3_t@@@std@@QEAAXQEAU_ccd_vec3_t@@_K@Z 0000000180054e80 f i collisioncodegen_CollisionGeometry.obj
 0001:00053eb0       ?deallocate@?$allocator@U_idx_vec3_t@shared_robotics@@@std@@QEAAXQEAU_idx_vec3_t@shared_robotics@@_K@Z 0000000180054eb0 f i collisioncodegen_CollisionGeometry.obj
 0001:00053ee0       ?deallocate@?$allocator@V?$vector@_KV?$allocator@_K@std@@@std@@@std@@QEAAXQEAV?$vector@_KV?$allocator@_K@std@@@2@_K@Z 0000000180054ee0 f i collisioncodegen_CollisionGeometry.obj
 0001:00053f10       ?deallocate@?$allocator@_K@std@@QEAAXQEA_K_K@Z 0000000180054f10 f i collisioncodegen_CollisionGeometry.obj
 0001:00053f40       ?end@?$vector@NV?$allocator@N@std@@@std@@QEAA?AV?$_Vector_iterator@V?$_Vector_val@U?$_Simple_types@N@std@@@std@@@2@XZ 0000000180054f40 f i collisioncodegen_CollisionGeometry.obj
 0001:00053f90       ?end@?$vector@_KV?$allocator@_K@std@@@std@@QEAA?AV?$_Vector_iterator@V?$_Vector_val@U?$_Simple_types@_K@std@@@std@@@2@XZ 0000000180054f90 f i collisioncodegen_CollisionGeometry.obj
 0001:00053fe0       ?eof@?$_Narrow_char_traits@DH@std@@SAHXZ 0000000180054fe0 f i collisioncodegen_CollisionGeometry.obj
 0001:00053ff0       ?eq_int_type@?$_Narrow_char_traits@DH@std@@SA_NAEBH0@Z 0000000180054ff0 f i collisioncodegen_CollisionGeometry.obj
 0001:00054030       ?erase@?$vector@_KV?$allocator@_K@std@@@std@@QEAA?AV?$_Vector_iterator@V?$_Vector_val@U?$_Simple_types@_K@std@@@std@@@2@V?$_Vector_const_iterator@V?$_Vector_val@U?$_Simple_types@_K@std@@@std@@@2@0@Z 0000000180055030 f i collisioncodegen_CollisionGeometry.obj
 0001:00054100       ?length@?$_Narrow_char_traits@DH@std@@SA_KQEBD@Z 0000000180055100 f i collisioncodegen_CollisionGeometry.obj
 0001:00054120       ?max@?$numeric_limits@_J@std@@SA_JXZ 0000000180055120 f i collisioncodegen_CollisionGeometry.obj
 0001:00054130       ?max_size@?$_Default_allocator_traits@V?$allocator@N@std@@@std@@SA_KAEBV?$allocator@N@2@@Z 0000000180055130 f i collisioncodegen_CollisionGeometry.obj
 0001:00054140       ?max_size@?$_Default_allocator_traits@V?$allocator@V?$vector@_KV?$allocator@_K@std@@@std@@@std@@@std@@SA_KAEBV?$allocator@V?$vector@_KV?$allocator@_K@std@@@std@@@2@@Z 0000000180055140 f i collisioncodegen_CollisionGeometry.obj
 0001:00054150       ?max_size@?$_Default_allocator_traits@V?$allocator@_K@std@@@std@@SA_KAEBV?$allocator@_K@2@@Z 0000000180055150 f i collisioncodegen_CollisionGeometry.obj
 0001:00054160       ?max_size@?$vector@NV?$allocator@N@std@@@std@@QEBA_KXZ 0000000180055160 f i collisioncodegen_CollisionGeometry.obj
 0001:000541b0       ?max_size@?$vector@V?$vector@_KV?$allocator@_K@std@@@std@@V?$allocator@V?$vector@_KV?$allocator@_K@std@@@std@@@2@@std@@QEBA_KXZ 00000001800551b0 f i collisioncodegen_CollisionGeometry.obj
 0001:00054200       ?max_size@?$vector@_KV?$allocator@_K@std@@@std@@QEBA_KXZ 0000000180055200 f i collisioncodegen_CollisionGeometry.obj
 0001:00054250       ?push_back@?$vector@NV?$allocator@N@std@@@std@@QEAAX$$QEAN@Z 0000000180055250 f i collisioncodegen_CollisionGeometry.obj
 0001:00054280       ?push_back@?$vector@_KV?$allocator@_K@std@@@std@@QEAAXAEB_K@Z 0000000180055280 f i collisioncodegen_CollisionGeometry.obj
 0001:000542b0       ?resize@?$vector@V?$vector@_KV?$allocator@_K@std@@@std@@V?$allocator@V?$vector@_KV?$allocator@_K@std@@@std@@@2@@std@@QEAAX_K@Z 00000001800552b0 f i collisioncodegen_CollisionGeometry.obj
 0001:000542e0       ?resize@?$vector@_KV?$allocator@_K@std@@@std@@QEAAX_K@Z 00000001800552e0 f i collisioncodegen_CollisionGeometry.obj
 0001:00054310       ?sign@CollisionGeometry@shared_robotics@@IEBAHN@Z 0000000180055310 f i collisioncodegen_CollisionGeometry.obj
 0001:00054360       ?size@?$vector@_KV?$allocator@_K@std@@@std@@QEBA_KXZ 0000000180055360 f i collisioncodegen_CollisionGeometry.obj
 0001:00054390       ?what@exception@std@@UEBAPEBDXZ 0000000180055390 f i collisioncodegen_CollisionGeometry.obj
 0001:00054440       collisioncodegen_makeBox   0000000180055440 f   collisioncodegen_api.obj
 0001:000544c0       collisioncodegen_makeSphere 00000001800554c0 f   collisioncodegen_api.obj
 0001:00054520       collisioncodegen_makeCylinder 0000000180055520 f   collisioncodegen_api.obj
 0001:00054590       collisioncodegen_makeCapsule 0000000180055590 f   collisioncodegen_api.obj
 0001:00054610       collisioncodegen_makeMesh  0000000180055610 f   collisioncodegen_api.obj
 0001:00054680       collisioncodegen_intersect 0000000180055680 f   collisioncodegen_api.obj
 0001:00054710       collisioncodegen_destructGeometry 0000000180055710 f   collisioncodegen_api.obj
 0001:00054770       collisioncodegen_copyGeometry 0000000180055770 f   collisioncodegen_api.obj
 0001:000547e0       collisioncodegen_getVertices 00000001800557e0 f   collisioncodegen_api.obj
 0001:000548b0       collisioncodegen_getNumVertices 00000001800558b0 f   collisioncodegen_api.obj
 0001:00054900       collisioncodegen_getX      0000000180055900 f   collisioncodegen_api.obj
 0001:00054920       collisioncodegen_getY      0000000180055920 f   collisioncodegen_api.obj
 0001:00054940       collisioncodegen_getZ      0000000180055940 f   collisioncodegen_api.obj
 0001:00054960       collisioncodegen_getRadius 0000000180055960 f   collisioncodegen_api.obj
 0001:00054980       collisioncodegen_getLength 0000000180055980 f   collisioncodegen_api.obj
 0001:000549a0       collisioncodegen_getType   00000001800559a0 f   collisioncodegen_api.obj
 0001:00054a40       ??$?0$$V@?$_Compressed_pair@V?$allocator@D@std@@V?$_String_val@U?$_Simple_types@D@std@@@2@$00@std@@QEAA@U_Zero_then_variadic_args_t@1@@Z 0000000180055a40 f i collisioncodegen_api.obj
 0001:00054a70       ??$?0$$V@?$_Compressed_pair@V?$allocator@U_ccd_vec3_t@@@std@@V?$_Vector_val@U?$_Simple_types@U_ccd_vec3_t@@@std@@@2@$00@std@@QEAA@U_Zero_then_variadic_args_t@1@@Z 0000000180055a70 f i collisioncodegen_api.obj
 0001:00054aa0       ??$?0$$V@?$_Compressed_pair@V?$allocator@U_idx_vec3_t@shared_robotics@@@std@@V?$_Vector_val@U?$_Simple_types@U_idx_vec3_t@shared_robotics@@@std@@@2@$00@std@@QEAA@U_Zero_then_variadic_args_t@1@@Z 0000000180055aa0 f i collisioncodegen_api.obj
 0001:00054ad0       ??$?0$$V@?$_Compressed_pair@V?$allocator@V?$vector@_KV?$allocator@_K@std@@@std@@@std@@V?$_Vector_val@U?$_Simple_types@V?$vector@_KV?$allocator@_K@std@@@std@@@std@@@2@$00@std@@QEAA@U_Zero_then_variadic_args_t@1@@Z 0000000180055ad0 f i collisioncodegen_api.obj
 0001:00054b00       ??$?0V?$allocator@U_ccd_vec3_t@@@std@@$$V@?$_Compressed_pair@V?$allocator@U_ccd_vec3_t@@@std@@V?$_Vector_val@U?$_Simple_types@U_ccd_vec3_t@@@std@@@2@$00@std@@QEAA@U_One_then_variadic_args_t@1@$$QEAV?$allocator@U_ccd_vec3_t@@@1@@Z 0000000180055b00 f i collisioncodegen_api.obj
 0001:00054b40       ??$?0V?$allocator@U_idx_vec3_t@shared_robotics@@@std@@$$V@?$_Compressed_pair@V?$allocator@U_idx_vec3_t@shared_robotics@@@std@@V?$_Vector_val@U?$_Simple_types@U_idx_vec3_t@shared_robotics@@@std@@@2@$00@std@@QEAA@U_One_then_variadic_args_t@1@$$QEAV?$allocator@U_idx_vec3_t@shared_robotics@@@1@@Z 0000000180055b40 f i collisioncodegen_api.obj
 0001:00054b80       ??$?0V?$allocator@V?$vector@_KV?$allocator@_K@std@@@std@@@std@@$$V@?$_Compressed_pair@V?$allocator@V?$vector@_KV?$allocator@_K@std@@@std@@@std@@V?$_Vector_val@U?$_Simple_types@V?$vector@_KV?$allocator@_K@std@@@std@@@std@@@2@$00@std@@QEAA@U_One_then_variadic_args_t@1@$$QEAV?$allocator@V?$vector@_KV?$allocator@_K@std@@@std@@@1@@Z 0000000180055b80 f i collisioncodegen_api.obj
 0001:00054bc0       ??$?0V?$allocator@_K@std@@$$V@?$_Compressed_pair@V?$allocator@_K@std@@V?$_Vector_val@U?$_Simple_types@_K@std@@@2@$00@std@@QEAA@U_One_then_variadic_args_t@1@$$QEAV?$allocator@_K@1@@Z 0000000180055bc0 f i collisioncodegen_api.obj
 0001:00054c00       ??$_Construct_in_place@PEADAEBQEAD@std@@YAXAEAPEADAEBQEAD@Z 0000000180055c00 f i collisioncodegen_api.obj
 0001:00054c50       ??$_Convert_size@_K@std@@YA_K_K@Z 0000000180055c50 f i collisioncodegen_api.obj
 0001:00054c60       ??$_Copy_memmove@PEAU_ccd_vec3_t@@PEAU1@@std@@YAPEAU_ccd_vec3_t@@PEAU1@00@Z 0000000180055c60 f i collisioncodegen_api.obj
 0001:00054d00       ??$_Copy_memmove@PEAU_idx_vec3_t@shared_robotics@@PEAU12@@std@@YAPEAU_idx_vec3_t@shared_robotics@@PEAU12@00@Z 0000000180055d00 f i collisioncodegen_api.obj
 0001:00054da0       ??$_Destroy_in_place@PEAD@std@@YAXAEAPEAD@Z 0000000180055da0 f i collisioncodegen_api.obj
 0001:00054db0       ??$_Emplace_back@AEAU_ccd_vec3_t@@@?$_Uninitialized_backout_al@V?$allocator@U_ccd_vec3_t@@@std@@@std@@QEAAXAEAU_ccd_vec3_t@@@Z 0000000180055db0 f i collisioncodegen_api.obj
 0001:00054e10       ??$_Emplace_back@AEAU_idx_vec3_t@shared_robotics@@@?$_Uninitialized_backout_al@V?$allocator@U_idx_vec3_t@shared_robotics@@@std@@@std@@QEAAXAEAU_idx_vec3_t@shared_robotics@@@Z 0000000180055e10 f i collisioncodegen_api.obj
 0001:00054e70       ??$_Emplace_back@AEAV?$vector@_KV?$allocator@_K@std@@@std@@@?$_Uninitialized_backout_al@V?$allocator@V?$vector@_KV?$allocator@_K@std@@@std@@@std@@@std@@QEAAXAEAV?$vector@_KV?$allocator@_K@std@@@1@@Z 0000000180055e70 f i collisioncodegen_api.obj
 0001:00054ed0       ??$_Emplace_back@AEA_K@?$_Uninitialized_backout_al@V?$allocator@_K@std@@@std@@QEAAXAEA_K@Z 0000000180055ed0 f i collisioncodegen_api.obj
 0001:00054f30       ??$_Emplace_back@U_ccd_vec3_t@@@?$_Uninitialized_backout_al@V?$allocator@U_ccd_vec3_t@@@std@@@std@@QEAAX$$QEAU_ccd_vec3_t@@@Z 0000000180055f30 f i collisioncodegen_api.obj
 0001:00054f90       ??$_Emplace_back_with_unused_capacity@AEBU_ccd_vec3_t@@@?$vector@U_ccd_vec3_t@@V?$allocator@U_ccd_vec3_t@@@std@@@std@@AEAA?A_TAEBU_ccd_vec3_t@@@Z 0000000180055f90 f i collisioncodegen_api.obj
 0001:00055040       ??$_Emplace_reallocate@AEBU_ccd_vec3_t@@@?$vector@U_ccd_vec3_t@@V?$allocator@U_ccd_vec3_t@@@std@@@std@@QEAAPEAU_ccd_vec3_t@@QEAU2@AEBU2@@Z 0000000180056040 f i collisioncodegen_api.obj
 0001:00055270       ??$_Get_size_of_n@$00@std@@YA_K_K@Z 0000000180056270 f i collisioncodegen_api.obj
 0001:00055290       ??$_Get_unwrapped@AEBQEAU_ccd_vec3_t@@@std@@YA?A_TAEBQEAU_ccd_vec3_t@@@Z 0000000180056290 f i collisioncodegen_api.obj
 0001:000552a0       ??$_Get_unwrapped@AEBQEAU_idx_vec3_t@shared_robotics@@@std@@YA?A_TAEBQEAU_idx_vec3_t@shared_robotics@@@Z 00000001800562a0 f i collisioncodegen_api.obj
 0001:000552b0       ??$_Reallocate_for@V<lambda_66f57f934f28d61049862f64df852ff0>@@PEBD@?$basic_string@DU?$char_traits@D@std@@V?$allocator@D@2@@std@@AEAAAEAV01@_KV<lambda_66f57f934f28d61049862f64df852ff0>@@PEBD@Z 00000001800562b0 f i collisioncodegen_api.obj
 0001:000553d0       ??$_To_address@PEAU_ccd_vec3_t@@@std@@YA?A_PAEBQEAU_ccd_vec3_t@@@Z 00000001800563d0 f i collisioncodegen_api.obj
 0001:000553e0       ??$_To_address@PEAU_idx_vec3_t@shared_robotics@@@std@@YA?A_PAEBQEAU_idx_vec3_t@shared_robotics@@@Z 00000001800563e0 f i collisioncodegen_api.obj
 0001:000553f0       ??$_Ucopy@PEAU_ccd_vec3_t@@@?$vector@U_ccd_vec3_t@@V?$allocator@U_ccd_vec3_t@@@std@@@std@@AEAAPEAU_ccd_vec3_t@@PEAU2@00@Z 00000001800563f0 f i collisioncodegen_api.obj
 0001:00055430       ??$_Ucopy@PEAU_idx_vec3_t@shared_robotics@@@?$vector@U_idx_vec3_t@shared_robotics@@V?$allocator@U_idx_vec3_t@shared_robotics@@@std@@@std@@AEAAPEAU_idx_vec3_t@shared_robotics@@PEAU23@00@Z 0000000180056430 f i collisioncodegen_api.obj
 0001:00055470       ??$_Ucopy@PEAV?$vector@_KV?$allocator@_K@std@@@std@@@?$vector@V?$vector@_KV?$allocator@_K@std@@@std@@V?$allocator@V?$vector@_KV?$allocator@_K@std@@@std@@@2@@std@@AEAAPEAV?$vector@_KV?$allocator@_K@std@@@1@PEAV21@00@Z 0000000180056470 f i collisioncodegen_api.obj
 0001:000554b0       ??$_Ucopy@PEA_K@?$vector@_KV?$allocator@_K@std@@@std@@AEAAPEA_KPEA_K00@Z 00000001800564b0 f i collisioncodegen_api.obj
 0001:000554f0       ??$_Unfancy@D@std@@YAPEADPEAD@Z 00000001800564f0 f i collisioncodegen_api.obj
 0001:00055500       ??$_Unfancy@U_ccd_vec3_t@@@std@@YAPEAU_ccd_vec3_t@@PEAU1@@Z 0000000180056500 f i collisioncodegen_api.obj
 0001:00055510       ??$_Unfancy@U_idx_vec3_t@shared_robotics@@@std@@YAPEAU_idx_vec3_t@shared_robotics@@PEAU12@@Z 0000000180056510 f i collisioncodegen_api.obj
 0001:00055520       ??$_Uninitialized_copy@PEAU_ccd_vec3_t@@V?$allocator@U_ccd_vec3_t@@@std@@@std@@YAPEAU_ccd_vec3_t@@QEAU1@0PEAU1@AEAV?$allocator@U_ccd_vec3_t@@@0@@Z 0000000180056520 f i collisioncodegen_api.obj
 0001:00055610       ??$_Uninitialized_copy@PEAU_idx_vec3_t@shared_robotics@@V?$allocator@U_idx_vec3_t@shared_robotics@@@std@@@std@@YAPEAU_idx_vec3_t@shared_robotics@@QEAU12@0PEAU12@AEAV?$allocator@U_idx_vec3_t@shared_robotics@@@0@@Z 0000000180056610 f i collisioncodegen_api.obj
 0001:00055700       ??$_Uninitialized_copy@PEAV?$vector@_KV?$allocator@_K@std@@@std@@V?$allocator@V?$vector@_KV?$allocator@_K@std@@@std@@@2@@std@@YAPEAV?$vector@_KV?$allocator@_K@std@@@0@QEAV10@0PEAV10@AEAV?$allocator@V?$vector@_KV?$allocator@_K@std@@@std@@@0@@Z 0000000180056700 f i collisioncodegen_api.obj
 0001:000557a0       ??$_Uninitialized_copy@PEA_KV?$allocator@_K@std@@@std@@YAPEA_KQEA_K0PEA_KAEAV?$allocator@_K@0@@Z 00000001800567a0 f i collisioncodegen_api.obj
 0001:00055880       ??$_Uninitialized_move@PEAU_ccd_vec3_t@@V?$allocator@U_ccd_vec3_t@@@std@@@std@@YAPEAU_ccd_vec3_t@@QEAU1@0PEAU1@AEAV?$allocator@U_ccd_vec3_t@@@0@@Z 0000000180056880 f i collisioncodegen_api.obj
 0001:00055970       ??$_Voidify_iter@PEAPEAD@std@@YAPEAXPEAPEAD@Z 0000000180056970 f i collisioncodegen_api.obj
 0001:00055980       ??$_Voidify_iter@PEAU_ccd_vec3_t@@@std@@YAPEAXPEAU_ccd_vec3_t@@@Z 0000000180056980 f i collisioncodegen_api.obj
 0001:00055990       ??$_Voidify_iter@PEAU_idx_vec3_t@shared_robotics@@@std@@YAPEAXPEAU_idx_vec3_t@shared_robotics@@@Z 0000000180056990 f i collisioncodegen_api.obj
 0001:000559a0       ??$addressof@PEAD@std@@YAPEAPEADAEAPEAD@Z 00000001800569a0 f i collisioncodegen_api.obj
 0001:000559b0       ??$construct@U_ccd_vec3_t@@AEAU1@@?$_Default_allocator_traits@V?$allocator@U_ccd_vec3_t@@@std@@@std@@SAXAEAV?$allocator@U_ccd_vec3_t@@@1@QEAU_ccd_vec3_t@@AEAU3@@Z 00000001800569b0 f i collisioncodegen_api.obj
 0001:00055a10       ??$construct@U_ccd_vec3_t@@AEBU1@@?$_Default_allocator_traits@V?$allocator@U_ccd_vec3_t@@@std@@@std@@SAXAEAV?$allocator@U_ccd_vec3_t@@@1@QEAU_ccd_vec3_t@@AEBU3@@Z 0000000180056a10 f i collisioncodegen_api.obj
 0001:00055a70       ??$construct@U_ccd_vec3_t@@U1@@?$_Default_allocator_traits@V?$allocator@U_ccd_vec3_t@@@std@@@std@@SAXAEAV?$allocator@U_ccd_vec3_t@@@1@QEAU_ccd_vec3_t@@$$QEAU3@@Z 0000000180056a70 f i collisioncodegen_api.obj
 0001:00055ad0       ??$construct@U_idx_vec3_t@shared_robotics@@AEAU12@@?$_Default_allocator_traits@V?$allocator@U_idx_vec3_t@shared_robotics@@@std@@@std@@SAXAEAV?$allocator@U_idx_vec3_t@shared_robotics@@@1@QEAU_idx_vec3_t@shared_robotics@@AEAU34@@Z 0000000180056ad0 f i collisioncodegen_api.obj
 0001:00055b30       ??$construct@V?$vector@_KV?$allocator@_K@std@@@std@@AEAV12@@?$_Default_allocator_traits@V?$allocator@V?$vector@_KV?$allocator@_K@std@@@std@@@std@@@std@@SAXAEAV?$allocator@V?$vector@_KV?$allocator@_K@std@@@std@@@1@QEAV?$vector@_KV?$allocator@_K@std@@@1@AEAV31@@Z 0000000180056b30 f i collisioncodegen_api.obj
 0001:00055b80       ??$construct@_KAEA_K@?$_Default_allocator_traits@V?$allocator@_K@std@@@std@@SAXAEAV?$allocator@_K@1@QEA_KAEA_K@Z 0000000180056b80 f i collisioncodegen_api.obj
 0001:00055bd0       ??$emplace_back@AEBU_ccd_vec3_t@@@?$vector@U_ccd_vec3_t@@V?$allocator@U_ccd_vec3_t@@@std@@@std@@QEAA?A_TAEBU_ccd_vec3_t@@@Z 0000000180056bd0 f i collisioncodegen_api.obj
 0001:00055c50       ??$forward@AEAU_ccd_vec3_t@@@std@@YAAEAU_ccd_vec3_t@@AEAU1@@Z 0000000180056c50 f i collisioncodegen_api.obj
 0001:00055c60       ??$forward@AEAU_idx_vec3_t@shared_robotics@@@std@@YAAEAU_idx_vec3_t@shared_robotics@@AEAU12@@Z 0000000180056c60 f i collisioncodegen_api.obj
 0001:00055c70       ??$forward@AEAV?$vector@_KV?$allocator@_K@std@@@std@@@std@@YAAEAV?$vector@_KV?$allocator@_K@std@@@0@AEAV10@@Z 0000000180056c70 f i collisioncodegen_api.obj
 0001:00055c80       ??$forward@AEA_K@std@@YAAEA_KAEA_K@Z 0000000180056c80 f i collisioncodegen_api.obj
 0001:00055c90       ??$forward@AEBQEAD@std@@YAAEBQEADAEBQEAD@Z 0000000180056c90 f i collisioncodegen_api.obj
 0001:00055ca0       ??$forward@AEBU_ccd_vec3_t@@@std@@YAAEBU_ccd_vec3_t@@AEBU1@@Z 0000000180056ca0 f i collisioncodegen_api.obj
 0001:00055cb0       ??$forward@U_ccd_vec3_t@@@std@@YA$$QEAU_ccd_vec3_t@@AEAU1@@Z 0000000180056cb0 f i collisioncodegen_api.obj
 0001:00055cc0       ??$forward@V?$allocator@U_ccd_vec3_t@@@std@@@std@@YA$$QEAV?$allocator@U_ccd_vec3_t@@@0@AEAV10@@Z 0000000180056cc0 f i collisioncodegen_api.obj
 0001:00055cd0       ??$forward@V?$allocator@U_idx_vec3_t@shared_robotics@@@std@@@std@@YA$$QEAV?$allocator@U_idx_vec3_t@shared_robotics@@@0@AEAV10@@Z 0000000180056cd0 f i collisioncodegen_api.obj
 0001:00055ce0       ??$forward@V?$allocator@V?$vector@_KV?$allocator@_K@std@@@std@@@std@@@std@@YA$$QEAV?$allocator@V?$vector@_KV?$allocator@_K@std@@@std@@@0@AEAV10@@Z 0000000180056ce0 f i collisioncodegen_api.obj
 0001:00055cf0       ??$max@_K@std@@YAAEB_KAEB_K0@Z 0000000180056cf0 f i collisioncodegen_api.obj
 0001:00055d40       ??$move@AEAU_ccd_vec3_t@@@std@@YA$$QEAU_ccd_vec3_t@@AEAU1@@Z 0000000180056d40 f i collisioncodegen_api.obj
 0001:00055d50       ??0?$_String_val@U?$_Simple_types@D@std@@@std@@QEAA@XZ 0000000180056d50 f i collisioncodegen_api.obj
 0001:00055d90       ??0?$_Uninitialized_backout_al@V?$allocator@U_ccd_vec3_t@@@std@@@std@@QEAA@PEAU_ccd_vec3_t@@AEAV?$allocator@U_ccd_vec3_t@@@1@@Z 0000000180056d90 f i collisioncodegen_api.obj
 0001:00055dd0       ??0?$_Uninitialized_backout_al@V?$allocator@U_idx_vec3_t@shared_robotics@@@std@@@std@@QEAA@PEAU_idx_vec3_t@shared_robotics@@AEAV?$allocator@U_idx_vec3_t@shared_robotics@@@1@@Z 0000000180056dd0 f i collisioncodegen_api.obj
 0001:00055e10       ??0?$_Vector_val@U?$_Simple_types@U_ccd_vec3_t@@@std@@@std@@QEAA@XZ 0000000180056e10 f i collisioncodegen_api.obj
 0001:00055e50       ??0?$_Vector_val@U?$_Simple_types@U_idx_vec3_t@shared_robotics@@@std@@@std@@QEAA@XZ 0000000180056e50 f i collisioncodegen_api.obj
 0001:00055e90       ??0?$_Vector_val@U?$_Simple_types@V?$vector@_KV?$allocator@_K@std@@@std@@@std@@@std@@QEAA@XZ 0000000180056e90 f i collisioncodegen_api.obj
 0001:00055ed0       ??0?$allocator@D@std@@QEAA@XZ 0000000180056ed0 f i collisioncodegen_api.obj
 0001:00055ee0       ??0?$allocator@U_ccd_vec3_t@@@std@@QEAA@XZ 0000000180056ee0 f i collisioncodegen_api.obj
 0001:00055ef0       ??0?$allocator@U_idx_vec3_t@shared_robotics@@@std@@QEAA@XZ 0000000180056ef0 f i collisioncodegen_api.obj
 0001:00055f00       ??0?$allocator@V?$vector@_KV?$allocator@_K@std@@@std@@@std@@QEAA@XZ 0000000180056f00 f i collisioncodegen_api.obj
 0001:00055f10       ??0?$basic_string@DU?$char_traits@D@std@@V?$allocator@D@2@@std@@QEAA@QEBD@Z 0000000180056f10 f i collisioncodegen_api.obj
 0001:00055f90       ??0?$vector@U_ccd_vec3_t@@V?$allocator@U_ccd_vec3_t@@@std@@@std@@QEAA@AEBV01@@Z 0000000180056f90 f i collisioncodegen_api.obj
 0001:000560a0       ??0?$vector@U_ccd_vec3_t@@V?$allocator@U_ccd_vec3_t@@@std@@@std@@QEAA@XZ 00000001800570a0 f i collisioncodegen_api.obj
 0001:000560e0       ??0?$vector@U_idx_vec3_t@shared_robotics@@V?$allocator@U_idx_vec3_t@shared_robotics@@@std@@@std@@QEAA@AEBV01@@Z 00000001800570e0 f i collisioncodegen_api.obj
 0001:000561f0       ??0?$vector@U_idx_vec3_t@shared_robotics@@V?$allocator@U_idx_vec3_t@shared_robotics@@@std@@@std@@QEAA@XZ 00000001800571f0 f i collisioncodegen_api.obj
 0001:00056230       ??0?$vector@V?$vector@_KV?$allocator@_K@std@@@std@@V?$allocator@V?$vector@_KV?$allocator@_K@std@@@std@@@2@@std@@QEAA@AEBV01@@Z 0000000180057230 f i collisioncodegen_api.obj
 0001:00056340       ??0?$vector@V?$vector@_KV?$allocator@_K@std@@@std@@V?$allocator@V?$vector@_KV?$allocator@_K@std@@@std@@@2@@std@@QEAA@XZ 0000000180057340 f i collisioncodegen_api.obj
 0001:00056380       ??0?$vector@_KV?$allocator@_K@std@@@std@@QEAA@AEBV01@@Z 0000000180057380 f i collisioncodegen_api.obj
 0001:00056490       ??0CollisionGeometry@shared_robotics@@QEAA@AEBV01@@Z 0000000180057490 f i collisioncodegen_api.obj
 0001:000565f0       ??0CollisionGeometry@shared_robotics@@QEAA@N@Z 00000001800575f0 f i collisioncodegen_api.obj
 0001:00056680       ??0CollisionGeometry@shared_robotics@@QEAA@NN@Z 0000000180057680 f i collisioncodegen_api.obj
 0001:00056720       ??0CollisionGeometry@shared_robotics@@QEAA@NNN@Z 0000000180057720 f i collisioncodegen_api.obj
 0001:000567d0       ??0CollisionGeometry@shared_robotics@@QEAA@PEANH_N@Z 00000001800577d0 f i collisioncodegen_api.obj
 0001:000569c0       ??0_Bxty@?$_String_val@U?$_Simple_types@D@std@@@std@@QEAA@XZ 00000001800579c0 f i collisioncodegen_api.obj
 0001:000569e0       ??0_Fake_proxy_ptr_impl@std@@QEAA@AEBU_Fake_allocator@1@AEBU_Container_base0@1@@Z 00000001800579e0 f i collisioncodegen_api.obj
 0001:00056a00       ??1?$_Compressed_pair@V?$allocator@D@std@@V?$_String_val@U?$_Simple_types@D@std@@@2@$00@std@@QEAA@XZ 0000000180057a00 f i collisioncodegen_api.obj
 0001:00056a20       ??1?$_String_val@U?$_Simple_types@D@std@@@std@@QEAA@XZ 0000000180057a20 f i collisioncodegen_api.obj
 0001:00056a40       ??1?$_Tidy_guard@V?$vector@U_ccd_vec3_t@@V?$allocator@U_ccd_vec3_t@@@std@@@std@@@std@@QEAA@XZ 0000000180057a40 f i collisioncodegen_api.obj
 0001:00056a70       ??1?$_Tidy_guard@V?$vector@U_idx_vec3_t@shared_robotics@@V?$allocator@U_idx_vec3_t@shared_robotics@@@std@@@std@@@std@@QEAA@XZ 0000000180057a70 f i collisioncodegen_api.obj
 0001:00056aa0       ??1?$_Tidy_guard@V?$vector@V?$vector@_KV?$allocator@_K@std@@@std@@V?$allocator@V?$vector@_KV?$allocator@_K@std@@@std@@@2@@std@@@std@@QEAA@XZ 0000000180057aa0 f i collisioncodegen_api.obj
 0001:00056ad0       ??1?$_Tidy_guard@V?$vector@_KV?$allocator@_K@std@@@std@@@std@@QEAA@XZ 0000000180057ad0 f i collisioncodegen_api.obj
 0001:00056b00       ??1?$_Uninitialized_backout_al@V?$allocator@U_ccd_vec3_t@@@std@@@std@@QEAA@XZ 0000000180057b00 f i collisioncodegen_api.obj
 0001:00056b30       ??1?$_Uninitialized_backout_al@V?$allocator@U_idx_vec3_t@shared_robotics@@@std@@@std@@QEAA@XZ 0000000180057b30 f i collisioncodegen_api.obj
 0001:00056b60       ??1?$basic_string@DU?$char_traits@D@std@@V?$allocator@D@2@@std@@QEAA@XZ 0000000180057b60 f i collisioncodegen_api.obj
 0001:00056b90       ??1_Bxty@?$_String_val@U?$_Simple_types@D@std@@@std@@QEAA@XZ 0000000180057b90 f i collisioncodegen_api.obj
 0001:00056ba0       ??A?$vector@U_ccd_vec3_t@@V?$allocator@U_ccd_vec3_t@@@std@@@std@@QEAAAEAU_ccd_vec3_t@@_K@Z 0000000180057ba0 f i collisioncodegen_api.obj
 0001:00056bd0       ??R<lambda_66f57f934f28d61049862f64df852ff0>@@QEBA@QEAD_KQEBD@Z 0000000180057bd0 f i collisioncodegen_api.obj
 0001:00056c30       ?_Buy_raw@?$vector@U_ccd_vec3_t@@V?$allocator@U_ccd_vec3_t@@@std@@@std@@AEAAX_K@Z 0000000180057c30 f i collisioncodegen_api.obj
 0001:00056cd0       ?_Buy_raw@?$vector@U_idx_vec3_t@shared_robotics@@V?$allocator@U_idx_vec3_t@shared_robotics@@@std@@@std@@AEAAX_K@Z 0000000180057cd0 f i collisioncodegen_api.obj
 0001:00056d70       ?_Buy_raw@?$vector@V?$vector@_KV?$allocator@_K@std@@@std@@V?$allocator@V?$vector@_KV?$allocator@_K@std@@@std@@@2@@std@@AEAAX_K@Z 0000000180057d70 f i collisioncodegen_api.obj
 0001:00056e10       ?_Buy_raw@?$vector@_KV?$allocator@_K@std@@@std@@AEAAX_K@Z 0000000180057e10 f i collisioncodegen_api.obj
 0001:00056ea0       ?_Calculate_growth@?$basic_string@DU?$char_traits@D@std@@V?$allocator@D@2@@std@@AEBA_K_K@Z 0000000180057ea0 f i collisioncodegen_api.obj
 0001:00056ee0       ?_Calculate_growth@?$basic_string@DU?$char_traits@D@std@@V?$allocator@D@2@@std@@CA_K_K00@Z 0000000180057ee0 f i collisioncodegen_api.obj
 0001:00056f80       ?_Calculate_growth@?$vector@U_ccd_vec3_t@@V?$allocator@U_ccd_vec3_t@@@std@@@std@@AEBA_K_K@Z 0000000180057f80 f i collisioncodegen_api.obj
 0001:00057010       ?_Change_array@?$vector@U_ccd_vec3_t@@V?$allocator@U_ccd_vec3_t@@@std@@@std@@AEAAXQEAU_ccd_vec3_t@@_K1@Z 0000000180058010 f i collisioncodegen_api.obj
 0001:00057110       ?_Get_first@?$_Compressed_pair@V?$allocator@D@std@@V?$_String_val@U?$_Simple_types@D@std@@@2@$00@std@@QEAAAEAV?$allocator@D@2@XZ 0000000180058110 f i collisioncodegen_api.obj
 0001:00057120       ?_Get_first@?$_Compressed_pair@V?$allocator@D@std@@V?$_String_val@U?$_Simple_types@D@std@@@2@$00@std@@QEBAAEBV?$allocator@D@2@XZ 0000000180058120 f i collisioncodegen_api.obj
 0001:00057130       ?_Get_first@?$_Compressed_pair@V?$allocator@U_ccd_vec3_t@@@std@@V?$_Vector_val@U?$_Simple_types@U_ccd_vec3_t@@@std@@@2@$00@std@@QEBAAEBV?$allocator@U_ccd_vec3_t@@@2@XZ 0000000180058130 f i collisioncodegen_api.obj
 0001:00057140       ?_Get_first@?$_Compressed_pair@V?$allocator@U_idx_vec3_t@shared_robotics@@@std@@V?$_Vector_val@U?$_Simple_types@U_idx_vec3_t@shared_robotics@@@std@@@2@$00@std@@QEBAAEBV?$allocator@U_idx_vec3_t@shared_robotics@@@2@XZ 0000000180058140 f i collisioncodegen_api.obj
 0001:00057150       ?_Getal@?$basic_string@DU?$char_traits@D@std@@V?$allocator@D@2@@std@@AEAAAEAV?$allocator@D@2@XZ 0000000180058150 f i collisioncodegen_api.obj
 0001:00057170       ?_Getal@?$basic_string@DU?$char_traits@D@std@@V?$allocator@D@2@@std@@AEBAAEBV?$allocator@D@2@XZ 0000000180058170 f i collisioncodegen_api.obj
 0001:00057190       ?_Getal@?$vector@U_ccd_vec3_t@@V?$allocator@U_ccd_vec3_t@@@std@@@std@@AEBAAEBV?$allocator@U_ccd_vec3_t@@@2@XZ 0000000180058190 f i collisioncodegen_api.obj
 0001:000571b0       ?_Getal@?$vector@U_idx_vec3_t@shared_robotics@@V?$allocator@U_idx_vec3_t@shared_robotics@@@std@@@std@@AEBAAEBV?$allocator@U_idx_vec3_t@shared_robotics@@@2@XZ 00000001800581b0 f i collisioncodegen_api.obj
 0001:000571d0       ?_Large_string_engaged@?$_String_val@U?$_Simple_types@D@std@@@std@@QEBA_NXZ 00000001800581d0 f i collisioncodegen_api.obj
 0001:00057200       ?_Myptr@?$_String_val@U?$_Simple_types@D@std@@@std@@QEAAPEADXZ 0000000180058200 f i collisioncodegen_api.obj
 0001:00057240       ?_Myptr@?$_String_val@U?$_Simple_types@D@std@@@std@@QEBAPEBDXZ 0000000180058240 f i collisioncodegen_api.obj
 0001:00057280       ?_Orphan_range@?$vector@U_ccd_vec3_t@@V?$allocator@U_ccd_vec3_t@@@std@@@std@@AEBAXPEAU_ccd_vec3_t@@0@Z 0000000180058280 f i collisioncodegen_api.obj
 0001:00057290       ?_Release@?$_Uninitialized_backout_al@V?$allocator@U_ccd_vec3_t@@@std@@@std@@QEAAPEAU_ccd_vec3_t@@XZ 0000000180058290 f i collisioncodegen_api.obj
 0001:000572b0       ?_Release@?$_Uninitialized_backout_al@V?$allocator@U_idx_vec3_t@shared_robotics@@@std@@@std@@QEAAPEAU_idx_vec3_t@shared_robotics@@XZ 00000001800582b0 f i collisioncodegen_api.obj
 0001:000572d0       ?_Release@_Fake_proxy_ptr_impl@std@@QEAAXXZ 00000001800582d0 f i collisioncodegen_api.obj
 0001:000572e0       ?_Tidy_deallocate@?$basic_string@DU?$char_traits@D@std@@V?$allocator@D@2@@std@@AEAAXXZ 00000001800582e0 f i collisioncodegen_api.obj
 0001:000573a0       ?_Tidy_init@?$basic_string@DU?$char_traits@D@std@@V?$allocator@D@2@@std@@AEAAXXZ 00000001800583a0 f i collisioncodegen_api.obj
 0001:00057400       ?_Umove@?$vector@U_ccd_vec3_t@@V?$allocator@U_ccd_vec3_t@@@std@@@std@@AEAAPEAU_ccd_vec3_t@@PEAU3@00@Z 0000000180058400 f i collisioncodegen_api.obj
 0001:00057440       ?_Umove_if_noexcept1@?$vector@U_ccd_vec3_t@@V?$allocator@U_ccd_vec3_t@@@std@@@std@@AEAAXPEAU_ccd_vec3_t@@00U?$integral_constant@_N$00@2@@Z 0000000180058440 f i collisioncodegen_api.obj
 0001:00057480       ?_Umove_if_noexcept@?$vector@U_ccd_vec3_t@@V?$allocator@U_ccd_vec3_t@@@std@@@std@@AEAAXPEAU_ccd_vec3_t@@00@Z 0000000180058480 f i collisioncodegen_api.obj
 0001:000574e0       ?_Xlen_string@std@@YAXXZ   00000001800584e0 f i collisioncodegen_api.obj
 0001:00057500       ?_Xlength@?$vector@U_ccd_vec3_t@@V?$allocator@U_ccd_vec3_t@@@std@@@std@@CAXXZ 0000000180058500 f i collisioncodegen_api.obj
 0001:00057520       ?allocate@?$allocator@D@std@@QEAAPEAD_K@Z 0000000180058520 f i collisioncodegen_api.obj
 0001:00057550       ?allocate@?$allocator@U_ccd_vec3_t@@@std@@QEAAPEAU_ccd_vec3_t@@_K@Z 0000000180058550 f i collisioncodegen_api.obj
 0001:00057580       ?allocate@?$allocator@U_idx_vec3_t@shared_robotics@@@std@@QEAAPEAU_idx_vec3_t@shared_robotics@@_K@Z 0000000180058580 f i collisioncodegen_api.obj
 0001:000575b0       ?assign@?$_Narrow_char_traits@DH@std@@SAXAEADAEBD@Z 00000001800585b0 f i collisioncodegen_api.obj
 0001:000575d0       ?assign@?$basic_string@DU?$char_traits@D@std@@V?$allocator@D@2@@std@@QEAAAEAV12@QEBD@Z 00000001800585d0 f i collisioncodegen_api.obj
 0001:00057610       ?assign@?$basic_string@DU?$char_traits@D@std@@V?$allocator@D@2@@std@@QEAAAEAV12@QEBD_K@Z 0000000180058610 f i collisioncodegen_api.obj
 0001:000576d0       ?c_str@?$basic_string@DU?$char_traits@D@std@@V?$allocator@D@2@@std@@QEBAPEBDXZ 00000001800586d0 f i collisioncodegen_api.obj
 0001:000576f0       ?capacity@?$vector@U_ccd_vec3_t@@V?$allocator@U_ccd_vec3_t@@@std@@@std@@QEBA_KXZ 00000001800586f0 f i collisioncodegen_api.obj
 0001:00057730       ?copy@?$_Char_traits@DH@std@@SAPEADQEADQEBD_K@Z 0000000180058730 f i collisioncodegen_api.obj
 0001:00057770       ?deallocate@?$allocator@D@std@@QEAAXQEAD_K@Z 0000000180058770 f i collisioncodegen_api.obj
 0001:000577a0       ?getHeight@CollisionGeometry@shared_robotics@@QEBANXZ 00000001800587a0 f i collisioncodegen_api.obj
 0001:000577b0       ?getNumVertices@CollisionGeometry@shared_robotics@@QEBA_KXZ 00000001800587b0 f i collisioncodegen_api.obj
 0001:000577c0       ?getRadius@CollisionGeometry@shared_robotics@@QEBANXZ 00000001800587c0 f i collisioncodegen_api.obj
 0001:000577d0       ?getType@CollisionGeometry@shared_robotics@@QEBA?AV?$basic_string@DU?$char_traits@D@std@@V?$allocator@D@2@@std@@XZ 00000001800587d0 f i collisioncodegen_api.obj
 0001:00057900       ?getVertices@CollisionGeometry@shared_robotics@@QEBAAEBV?$vector@U_ccd_vec3_t@@V?$allocator@U_ccd_vec3_t@@@std@@@std@@XZ 0000000180058900 f i collisioncodegen_api.obj
 0001:00057910       ?getX@CollisionGeometry@shared_robotics@@QEBANXZ 0000000180058910 f i collisioncodegen_api.obj
 0001:00057920       ?getY@CollisionGeometry@shared_robotics@@QEBANXZ 0000000180058920 f i collisioncodegen_api.obj
 0001:00057930       ?getZ@CollisionGeometry@shared_robotics@@QEBANXZ 0000000180058930 f i collisioncodegen_api.obj
 0001:00057940       ?initializePositionAndOrientation@CollisionGeometry@shared_robotics@@AEAAXXZ 0000000180058940 f i collisioncodegen_api.obj
 0001:000579d0       ?length@?$basic_string@DU?$char_traits@D@std@@V?$allocator@D@2@@std@@QEBA_KXZ 00000001800589d0 f i collisioncodegen_api.obj
 0001:000579e0       ?max_size@?$_Default_allocator_traits@V?$allocator@D@std@@@std@@SA_KAEBV?$allocator@D@2@@Z 00000001800589e0 f i collisioncodegen_api.obj
 0001:000579f0       ?max_size@?$_Default_allocator_traits@V?$allocator@U_ccd_vec3_t@@@std@@@std@@SA_KAEBV?$allocator@U_ccd_vec3_t@@@2@@Z 00000001800589f0 f i collisioncodegen_api.obj
 0001:00057a00       ?max_size@?$basic_string@DU?$char_traits@D@std@@V?$allocator@D@2@@std@@QEBA_KXZ 0000000180058a00 f i collisioncodegen_api.obj
 0001:00057a70       ?max_size@?$vector@U_ccd_vec3_t@@V?$allocator@U_ccd_vec3_t@@@std@@@std@@QEBA_KXZ 0000000180058a70 f i collisioncodegen_api.obj
 0001:00057ac0       ?move@?$_Char_traits@DH@std@@SAPEADQEADQEBD_K@Z 0000000180058ac0 f i collisioncodegen_api.obj
 0001:00057b00       ?push_back@?$vector@U_ccd_vec3_t@@V?$allocator@U_ccd_vec3_t@@@std@@@std@@QEAAXAEBU_ccd_vec3_t@@@Z 0000000180058b00 f i collisioncodegen_api.obj
 0001:00057b30       ?select_on_container_copy_construction@?$_Default_allocator_traits@V?$allocator@U_ccd_vec3_t@@@std@@@std@@SA?AV?$allocator@U_ccd_vec3_t@@@2@AEBV32@@Z 0000000180058b30 f i collisioncodegen_api.obj
 0001:00057b40       ?select_on_container_copy_construction@?$_Default_allocator_traits@V?$allocator@U_idx_vec3_t@shared_robotics@@@std@@@std@@SA?AV?$allocator@U_idx_vec3_t@shared_robotics@@@2@AEBV32@@Z 0000000180058b40 f i collisioncodegen_api.obj
 0001:00057b50       ?select_on_container_copy_construction@?$_Default_allocator_traits@V?$allocator@V?$vector@_KV?$allocator@_K@std@@@std@@@std@@@std@@SA?AV?$allocator@V?$vector@_KV?$allocator@_K@std@@@std@@@2@AEBV32@@Z 0000000180058b50 f i collisioncodegen_api.obj
 0001:00057b60       ?select_on_container_copy_construction@?$_Default_allocator_traits@V?$allocator@_K@std@@@std@@SA?AV?$allocator@_K@2@AEBV32@@Z 0000000180058b60 f i collisioncodegen_api.obj
 0001:00057b70       ?setEnumType@CollisionGeometry@shared_robotics@@QEAAXW4Type@12@@Z 0000000180058b70 f i collisioncodegen_api.obj
 0001:00057b90       ?size@?$vector@U_ccd_vec3_t@@V?$allocator@U_ccd_vec3_t@@@std@@@std@@QEBA_KXZ 0000000180058b90 f i collisioncodegen_api.obj
 0001:00058300       ?ccdDistance@shared_robotics@@YANPEBX0PEBU_ccd_t@@PEAU_ccd_vec3_t@@2@Z 0000000180059300 f   collisioncodegen_ccdExtensions.obj
 0001:000585e0       ?distanceToOrigin@shared_robotics@@YANPEAU_ccd_simplex_t@@AEAPEAU_ccd_vec3_t@@@Z 00000001800595e0 f   collisioncodegen_ccdExtensions.obj
 0001:00058c00       ?extractWitnessPoints@shared_robotics@@YAXPEBU_ccd_simplex_t@@PEBU_ccd_vec3_t@@PEAU3@2@Z 0000000180059c00 f   collisioncodegen_ccdExtensions.obj
 0001:00058cc0       ?interpolateBetweenTwoSupportPoints@shared_robotics@@YAXAEAPEBU_ccd_simplex_t@@AEAPEBU_ccd_vec3_t@@AEAPEAU3@2@Z 0000000180059cc0 f   collisioncodegen_ccdExtensions.obj
 0001:00058fa0       ?interpolateAmongThreeSupportPoints@shared_robotics@@YAXAEAPEBU_ccd_simplex_t@@AEAPEBU_ccd_vec3_t@@AEAPEAU3@2@Z 0000000180059fa0 f   collisioncodegen_ccdExtensions.obj
 0001:000595d0       ?barycentricCoordinates@@YAXPEBU_ccd_vec3_t@@000PEAU1@@Z 000000018005a5d0 f   collisioncodegen_ccdExtensions.obj
 0001:000597a0       ?epsilon@?$numeric_limits@N@std@@SANXZ 000000018005a7a0 f i collisioncodegen_ccdExtensions.obj
 0001:000598b0       intersect                  000000018005a8b0 f   collisioncodegen_checkCollision.obj
 0001:00059c00       updatePose                 000000018005ac00 f   collisioncodegen_checkCollision.obj
 0001:00059d20       getBitfieldFromFloat       000000018005ad20 f   half_type.obj
 0001:00059d50       getFloatFromBitfield       000000018005ad50 f   half_type.obj
 0001:00059d80       getBitfieldFromHalf        000000018005ad80 f   half_type.obj
 0001:00059da0       getHalfFromBitfield        000000018005ada0 f   half_type.obj
 0001:00059dd0       halfToFloat                000000018005add0 f   half_type.obj
 0001:00059f50       halfToDouble               000000018005af50 f   half_type.obj
 0001:00059f80       floatToHalf                000000018005af80 f   half_type.obj
 0001:0005a1e0       doubleToHalf               000000018005b1e0 f   half_type.obj
 0001:0005a4cb       sf_load_rtw_optimization_info 000000018005b4cb f   sf_runtime:sf_runtime.dll
 0001:0005a4d1       sf_mex_decode              000000018005b4d1 f   sf_runtime:sf_runtime.dll
 0001:0005a4d7       sf_init_ChartRunTimeInfo   000000018005b4d7 f   sf_runtime:sf_runtime.dll
 0001:0005a4dd       sf_free_ChartRunTimeInfo   000000018005b4dd f   sf_runtime:sf_runtime.dll
 0001:0005a4e3       sf_reset_warnings_ChartRunTimeInfo 000000018005b4e3 f   sf_runtime:sf_runtime.dll
 0001:0005a4e9       sfrtGetEmlrtCtx            000000018005b4e9 f   sf_runtime:sf_runtime.dll
 0001:0005a4ef       sfrtGetCovrtInstance       000000018005b4ef f   sf_runtime:sf_runtime.dll
 0001:0005a4f5       sf_get_chart_instance_ptr  000000018005b4f5 f   sf_runtime:sf_runtime.dll
 0001:0005a4fb       sfSetAnimationVectors      000000018005b4fb f   sf_runtime:sf_runtime.dll
 0001:0005a501       sim_mode_is_rtw_gen        000000018005b501 f   sf_runtime:sf_runtime.dll
 0001:0005a507       sim_mode_is_external       000000018005b507 f   sf_runtime:sf_runtime.dll
 0001:0005a50d       sf_clear_rtw_identifier    000000018005b50d f   sf_runtime:sf_runtime.dll
 0001:0005a513       sf_get_time                000000018005b513 f   sf_runtime:sf_runtime.dll
 0001:0005a519       sf_set_work_widths         000000018005b519 f   sf_runtime:sf_runtime.dll
 0001:0005a51f       sf_error_out_about_continuous_sample_time_with_persistent_vars 000000018005b51f f   sf_runtime:sf_runtime.dll
 0001:0005a525       sfHasContStates            000000018005b525 f   sf_runtime:sf_runtime.dll
 0001:0005a52b       supportsLegacyBehaviorForPersistentVarInContinuousTime 000000018005b52b f   sf_runtime:sf_runtime.dll
 0001:0005a531       mdlProcessParamsCommon     000000018005b531 f   sf_runtime:sf_runtime.dll
 0001:0005a537       sf_mex_call                000000018005b537 f   sf_runtime:sf_runtime.dll
 0001:0005a53d       sf_mex_error_message       000000018005b53d f   sf_runtime:sf_runtime.dll
 0001:0005a543       sf_mex_create              000000018005b543 f   sf_runtime:sf_runtime.dll
 0001:0005a549       sf_mex_createcellmatrix    000000018005b549 f   sf_runtime:sf_runtime.dll
 0001:0005a54f       sf_mex_setcell             000000018005b54f f   sf_runtime:sf_runtime.dll
 0001:0005a555       sf_mex_getcell             000000018005b555 f   sf_runtime:sf_runtime.dll
 0001:0005a55b       sf_mex_assign              000000018005b55b f   sf_runtime:sf_runtime.dll
 0001:0005a561       sf_mex_dup                 000000018005b561 f   sf_runtime:sf_runtime.dll
 0001:0005a567       sf_mex_destroy             000000018005b567 f   sf_runtime:sf_runtime.dll
 0001:0005a56d       sf_mex_import              000000018005b56d f   sf_runtime:sf_runtime.dll
 0001:0005a573       ssGetInputPortSignal_wrapper 000000018005b573 f   sf_runtime:sf_runtime.dll
 0001:0005a579       ssGetOutputPortSignal_wrapper 000000018005b579 f   sf_runtime:sf_runtime.dll
 0001:0005a57f       sf_get_ChartInfoStruct_CodeGen 000000018005b57f f   sf_runtime:sf_runtime.dll
 0001:0005a585       sf_get_hasSeparateUpdateOutputs 000000018005b585 f   sf_runtime:sf_runtime.dll
 0001:0005a58b       callMdlMethodAndReportError 000000018005b58b f   sf_runtime:sf_runtime.dll
 0001:0005a591       call_sf_machine_global_method_dispatcher 000000018005b591 f   sf_runtime:sf_runtime.dll
 0001:0005a597       getRuntimeInstanceInfoAsVoid 000000018005b597 f   sf_runtime:sf_runtime.dll
 0001:0005a59d       sf_mex_error_direct_call   000000018005b59d f   sf_runtime:sf_runtime.dll
 0001:0005a5a3       sf_clear_error_manager_info 000000018005b5a3 f   sf_runtime:sf_runtime.dll
 0001:0005a5a9       mxIsChar_800               000000018005b5a9 f   libmx:libmx.dll
 0001:0005a5af       mxGetScalar_800            000000018005b5af f   libmx:libmx.dll
 0001:0005a5b5       mxGetPr_800                000000018005b5b5 f   libmx:libmx.dll
 0001:0005a5bb       mxDestroyArray_800         000000018005b5bb f   libmx:libmx.dll
 0001:0005a5c1       mxCreateDoubleMatrix_800   000000018005b5c1 f   libmx:libmx.dll
 0001:0005a5c7       mxGetString_800            000000018005b5c7 f   libmx:libmx.dll
 0001:0005a5cd       mxDuplicateArray_800       000000018005b5cd f   libmx:libmx.dll
 0001:0005a5d3       mxIsEmpty_800              000000018005b5d3 f   libmx:libmx.dll
 0001:0005a5d9       mxSetCell_800              000000018005b5d9 f   libmx:libmx.dll
 0001:0005a5df       mxSetField_800             000000018005b5df f   libmx:libmx.dll
 0001:0005a5e5       mxCreateString_800         000000018005b5e5 f   libmx:libmx.dll
 0001:0005a5eb       mxCreateCellMatrix_800     000000018005b5eb f   libmx:libmx.dll
 0001:0005a5f1       mxCreateStructMatrix_800   000000018005b5f1 f   libmx:libmx.dll
 0001:0005a5f7       mxGetNaN_800               000000018005b5f7 f   libmx:libmx.dll
 0001:0005a5fd       mxCalloc_800               000000018005b5fd f   libmx:libmx.dll
 0001:0005a603       mxGetM_800                 000000018005b603 f   libmx:libmx.dll
 0001:0005a609       mxGetClassID_800           000000018005b609 f   libmx:libmx.dll
 0001:0005a60f       mxIsNumeric_800            000000018005b60f f   libmx:libmx.dll
 0001:0005a615       mxIsComplex_800            000000018005b615 f   libmx:libmx.dll
 0001:0005a61b       mxGetN_800                 000000018005b61b f   libmx:libmx.dll
 0001:0005a621       mxCreateDoubleScalar_800   000000018005b621 f   libmx:libmx.dll
 0001:0005a627       mexMakeArrayPersistent_800 000000018005b627 f   libmex:libmex.dll
 0001:0005a62d       mexErrMsgTxt_800           000000018005b62d f   libmex:libmex.dll
 0001:0005a633       mexWarnMsgTxt_800          000000018005b633 f   libmex:libmex.dll
 0001:0005a639       mexCallMATLAB_800          000000018005b639 f   libmex:libmex.dll
 0001:0005a63f       mexLock_800                000000018005b63f f   libmex:libmex.dll
 0001:0005a645       mexUnlock_800              000000018005b645 f   libmex:libmex.dll
 0001:0005a64b       mexIsLocked_800            000000018005b64b f   libmex:libmex.dll
 0001:0005a651       utMalloc                   000000018005b651 f   libut:libut.dll
 0001:0005a657       utFree                     000000018005b657 f   libut:libut.dll
 0001:0005a65d       muDoubleScalarFloor        000000018005b65d f   libmwmathutil:libmwmathutil.dll
 0001:0005a663       muDoubleScalarCos          000000018005b663 f   libmwmathutil:libmwmathutil.dll
 0001:0005a669       muDoubleScalarAtan2        000000018005b669 f   libmwmathutil:libmwmathutil.dll
 0001:0005a66f       muDoubleScalarSin          000000018005b66f f   libmwmathutil:libmwmathutil.dll
 0001:0005a675       muDoubleScalarSqrt         000000018005b675 f   libmwmathutil:libmwmathutil.dll
 0001:0005a67b       muIntScalarMax_sint32      000000018005b67b f   libmwmathutil:libmwmathutil.dll
 0001:0005a681       muDoubleScalarIsNaN        000000018005b681 f   libmwmathutil:libmwmathutil.dll
 0001:0005a687       muDoubleScalarIsInf        000000018005b687 f   libmwmathutil:libmwmathutil.dll
 0001:0005a68d       emlrtLicenseCheckR2022a    000000018005b68d f   libemlrt:libemlrt.dll
 0001:0005a693       emlrtDynamicBoundsCheckR2012b 000000018005b693 f   libemlrt:libemlrt.dll
 0001:0005a699       emlrtSizeMulR2012b         000000018005b699 f   libemlrt:libemlrt.dll
 0001:0005a69f       emlrtIntegerCheckR2012b    000000018005b69f f   libemlrt:libemlrt.dll
 0001:0005a6a5       emlrtNonNegativeCheckR2012b 000000018005b6a5 f   libemlrt:libemlrt.dll
 0001:0005a6ab       emlrtForLoopVectorCheckR2021a 000000018005b6ab f   libemlrt:libemlrt.dll
 0001:0005a6b1       emlrtMallocMex             000000018005b6b1 f   libemlrt:libemlrt.dll
 0001:0005a6b7       emlrtFreeMex               000000018005b6b7 f   libemlrt:libemlrt.dll
 0001:0005a6bd       emlrtHeapReferenceStackEnterFcnR2012b 000000018005b6bd f   libemlrt:libemlrt.dll
 0001:0005a6c3       emlrtHeapReferenceStackLeaveFcnR2012b 000000018005b6c3 f   libemlrt:libemlrt.dll
 0001:0005a6c9       emlrtPushHeapReferenceStackR2021a 000000018005b6c9 f   libemlrt:libemlrt.dll
 0001:0005a6cf       emlrtHeapAllocationErrorR2012b 000000018005b6cf f   libemlrt:libemlrt.dll
 0001:0005a6d5       emlrtDimSizeGeqCheckR2012b 000000018005b6d5 f   libemlrt:libemlrt.dll
 0001:0005a6db       emlrtDimSizeImpxCheckR2021b 000000018005b6db f   libemlrt:libemlrt.dll
 0001:0005a6e1       emlrtSubAssignSizeCheckR2012b 000000018005b6e1 f   libemlrt:libemlrt.dll
 0001:0005a6e7       emlrtSubAssignSizeCheck1dR2017a 000000018005b6e7 f   libemlrt:libemlrt.dll
 0001:0005a6ed       covrtCreateStateflowInstanceData 000000018005b6ed f   libcovrt:libcovrt.dll
 0001:0005a6f3       covrtDeleteStateflowInstanceData 000000018005b6f3 f   libcovrt:libcovrt.dll
 0001:0005a6f9       covrtTransInitFcn          000000018005b6f9 f   libcovrt:libcovrt.dll
 0001:0005a6ff       covrtStateInitFcn          000000018005b6ff f   libcovrt:libcovrt.dll
 0001:0005a705       covrtChartInitFcn          000000018005b705 f   libcovrt:libcovrt.dll
 0001:0005a70b       covrtSigUpdateFcn          000000018005b70b f   libcovrt:libcovrt.dll
 0001:0005a711       covrtEmlInitFcn            000000018005b711 f   libcovrt:libcovrt.dll
 0001:0005a717       covrtEmlFcnInitFcn         000000018005b717 f   libcovrt:libcovrt.dll
 0001:0005a71d       covrtEmlFcnEval            000000018005b71d f   libcovrt:libcovrt.dll
 0001:0005a724       __raise_securityfailure    000000018005b724 f   MSVCRT:gs_report.obj
 0001:0005a758       __report_gsfailure         000000018005b758 f   MSVCRT:gs_report.obj
 0001:0005a82c       __report_rangecheckfailure 000000018005b82c f   MSVCRT:gs_report.obj
 0001:0005a840       __report_securityfailure   000000018005b840 f   MSVCRT:gs_report.obj
 0001:0005a8dc       __report_securityfailureEx 000000018005b8dc f   MSVCRT:gs_report.obj
 0001:0005aad0       __GSHandlerCheck           000000018005bad0 f   MSVCRT:gshandler.obj
 0001:0005aaf0       __GSHandlerCheckCommon     000000018005baf0 f   MSVCRT:gshandler.obj
 0001:0005ab60       __security_check_cookie    000000018005bb60 f   MSVCRT:amdsecgs.obj
 0001:0005ab90       __chkstk                   000000018005bb90 f   MSVCRT:chkstk.obj
 0001:0005ab90       _alloca_probe              000000018005bb90 f   MSVCRT:chkstk.obj
 0001:0005abe0       ??2@YAPEAX_K@Z             000000018005bbe0 f   MSVCRT:new_scalar.obj
 0001:0005ac1c       ??3@YAXPEAX_K@Z            000000018005bc1c f   MSVCRT:delete_scalar_size.obj
 0001:0005ac24       __GSHandlerCheck_EH4       000000018005bc24 f   MSVCRT:gshandlereh4.obj
 0001:0005aca4       ??1type_info@@UEAA@XZ      000000018005bca4 f   MSVCRT:std_type_info_static.obj
 0001:0005acb0       ??_Etype_info@@UEAAPEAXI@Z 000000018005bcb0 f i MSVCRT:std_type_info_static.obj
 0001:0005acb0       ??_Gtype_info@@UEAAPEAXI@Z 000000018005bcb0 f i MSVCRT:std_type_info_static.obj
 0001:0005b018       _CRT_INIT                  000000018005c018 f   MSVCRT:dll_dllmain.obj
 0001:0005b020       _DllMainCRTStartup         000000018005c020 f   MSVCRT:dll_dllmain.obj
 0001:0005b060       ??0bad_alloc@std@@QEAA@XZ  000000018005c060 f i MSVCRT:throw_bad_alloc.obj
 0001:0005b080       ?__scrt_throw_std_bad_alloc@@YAXXZ 000000018005c080 f   MSVCRT:throw_bad_alloc.obj
 0001:0005b0a0       ?__scrt_throw_std_bad_array_new_length@@YAXXZ 000000018005c0a0 f   MSVCRT:throw_bad_alloc.obj
 0001:0005b0c0       ??3@YAXPEAX@Z              000000018005c0c0 f   MSVCRT:delete_scalar.obj
 0001:0005b134       __security_init_cookie     000000018005c134 f   MSVCRT:gs_support.obj
 0001:0005b1e0       DllMain                    000000018005c1e0 f   MSVCRT:dll_dllmain_stub.obj
 0001:0005b204       ?__scrt_initialize_type_info@@YAXXZ 000000018005c204 f   MSVCRT:tncleanup.obj
 0001:0005b214       ?__scrt_uninitialize_type_info@@YAXXZ 000000018005c214 f   MSVCRT:tncleanup.obj
 0001:0005b220       __local_stdio_scanf_options 000000018005c220 f i MSVCRT:default_local_stdio_options.obj
 0001:0005b228       __scrt_initialize_default_local_stdio_options 000000018005c228 f   MSVCRT:default_local_stdio_options.obj
 0001:0005b244       ?configure_argv@__scrt_narrow_argv_policy@@SAHXZ 000000018005c244 f i MSVCRT:utility.obj
 0001:0005b2a4       ?initialize_environment@__scrt_narrow_environment_policy@@SAHXZ 000000018005c2a4 f i MSVCRT:utility.obj
 0001:0005b2dc       NtCurrentTeb               000000018005c2dc f i MSVCRT:utility.obj
 0001:0005b2e8       __scrt_acquire_startup_lock 000000018005c2e8 f   MSVCRT:utility.obj
 0001:0005b324       __scrt_dllmain_after_initialize_c 000000018005c324 f   MSVCRT:utility.obj
 0001:0005b358       __scrt_dllmain_before_initialize_c 000000018005c358 f   MSVCRT:utility.obj
 0001:0005b370       __scrt_dllmain_crt_thread_attach 000000018005c370 f   MSVCRT:utility.obj
 0001:0005b398       __scrt_dllmain_crt_thread_detach 000000018005c398 f   MSVCRT:utility.obj
 0001:0005b3b0       __scrt_dllmain_exception_filter 000000018005c3b0 f   MSVCRT:utility.obj
 0001:0005b410       __scrt_dllmain_uninitialize_c 000000018005c410 f   MSVCRT:utility.obj
 0001:0005b440       __scrt_dllmain_uninitialize_critical 000000018005c440 f   MSVCRT:utility.obj
 0001:0005b454       __scrt_initialize_crt      000000018005c454 f   MSVCRT:utility.obj
 0001:0005b4a0       __scrt_initialize_onexit_tables 000000018005c4a0 f   MSVCRT:utility.obj
 0001:0005b52c       __scrt_is_nonwritable_in_current_image 000000018005c52c f   MSVCRT:utility.obj
 0001:0005b5c4       __scrt_release_startup_lock 000000018005c5c4 f   MSVCRT:utility.obj
 0001:0005b5e8       __scrt_uninitialize_crt    000000018005c5e8 f   MSVCRT:utility.obj
 0001:0005b614       _onexit                    000000018005c614 f   MSVCRT:utility.obj
 0001:0005b650       at_quick_exit              000000018005c650 f   MSVCRT:utility.obj
 0001:0005b670       atexit                     000000018005c670 f   MSVCRT:utility.obj
 0001:0005b688       __scrt_get_dyn_tls_init_callback 000000018005c688 f   MSVCRT:dyn_tls_init.obj
 0001:0005b690       __crt_debugger_hook        000000018005c690 f   MSVCRT:utility_desktop.obj
 0001:0005b698       __scrt_fastfail            000000018005c698 f   MSVCRT:utility_desktop.obj
 0001:0005b7e4       __scrt_get_show_window_mode 000000018005c7e4 f   MSVCRT:utility_desktop.obj
 0001:0005b820       __scrt_initialize_mta      000000018005c820 f   MSVCRT:utility_desktop.obj
 0001:0005b828       __scrt_initialize_winrt    000000018005c828 f   MSVCRT:utility_desktop.obj
 0001:0005b82c       __scrt_is_managed_app      000000018005c82c f   MSVCRT:utility_desktop.obj
 0001:0005b880       __scrt_set_unhandled_exception_filter 000000018005c880 f   MSVCRT:utility_desktop.obj
 0001:0005b890       __scrt_exe_initialize_mta  000000018005c890 f   MSVCRT:utility_desktop.obj
 0001:0005b890       __scrt_stub_for_initialize_mta 000000018005c890 f   MSVCRT:utility_desktop.obj
 0001:0005b894       __scrt_unhandled_exception_filter 000000018005c894 f   MSVCRT:utility_desktop.obj
 0001:0005b8f0       _RTC_Initialize            000000018005c8f0 f   MSVCRT:initsect.obj
 0001:0005b92c       _RTC_Terminate             000000018005c92c f   MSVCRT:initsect.obj
 0001:0005b968       _guard_check_icall_nop     000000018005c968 f i MSVCRT:guard_support.obj
 0001:0005b96c       ReadNoFence64              000000018005c96c f i MSVCRT:guard_support.obj
 0001:0005b970       ReadPointerNoFence         000000018005c970 f i MSVCRT:guard_support.obj
 0001:0005b974       __castguard_check_failure_debugbreak 000000018005c974 f i MSVCRT:guard_support.obj
 0001:0005b990       __castguard_check_failure_fastfail 000000018005c990 f i MSVCRT:guard_support.obj
 0001:0005b9b4       __castguard_check_failure_nop 000000018005c9b4 f i MSVCRT:guard_support.obj
 0001:0005b9b8       __castguard_check_failure_os_handled 000000018005c9b8 f i MSVCRT:guard_support.obj
 0001:0005ba18       __castguard_slow_path_check_debugbreak 000000018005ca18 f i MSVCRT:guard_support.obj
 0001:0005ba4c       __castguard_slow_path_check_fastfail 000000018005ca4c f i MSVCRT:guard_support.obj
 0001:0005ba88       __castguard_slow_path_check_nop 000000018005ca88 f i MSVCRT:guard_support.obj
 0001:0005ba8c       __castguard_slow_path_check_os_handled 000000018005ca8c f i MSVCRT:guard_support.obj
 0001:0005bb00       _guard_icall_checks_enforced 000000018005cb00 f i MSVCRT:guard_support.obj
 0001:0005bb18       _guard_rf_checks_enforced  000000018005cb18 f i MSVCRT:guard_support.obj
 0001:0005bb1c       __isa_available_init       000000018005cb1c f   MSVCRT:cpu_disp.obj
 0001:0005bcc0       _get_startup_argv_mode     000000018005ccc0 f   MSVCRT:argv_mode.obj
 0001:0005bcc8       __scrt_is_ucrt_dll_in_use  000000018005ccc8 f   MSVCRT:ucrt_detection.obj
 0001:0005bce0       ?_Xlength_error@std@@YAXPEBD@Z 000000018005cce0 f   msvcprt:MSVCP140.dll
 0001:0005bce6       ?uncaught_exception@std@@YA_NXZ 000000018005cce6 f   msvcprt:MSVCP140.dll
 0001:0005bcec       ?good@ios_base@std@@QEBA_NXZ 000000018005ccec f   msvcprt:MSVCP140.dll
 0001:0005bcf2       ?flags@ios_base@std@@QEBAHXZ 000000018005ccf2 f   msvcprt:MSVCP140.dll
 0001:0005bcf8       ?width@ios_base@std@@QEBA_JXZ 000000018005ccf8 f   msvcprt:MSVCP140.dll
 0001:0005bcfe       ?width@ios_base@std@@QEAA_J_J@Z 000000018005ccfe f   msvcprt:MSVCP140.dll
 0001:0005bd04       ?sputc@?$basic_streambuf@DU?$char_traits@D@std@@@std@@QEAAHD@Z 000000018005cd04 f   msvcprt:MSVCP140.dll
 0001:0005bd0a       ?sputn@?$basic_streambuf@DU?$char_traits@D@std@@@std@@QEAA_JPEBD_J@Z 000000018005cd0a f   msvcprt:MSVCP140.dll
 0001:0005bd10       ?setstate@?$basic_ios@DU?$char_traits@D@std@@@std@@QEAAXH_N@Z 000000018005cd10 f   msvcprt:MSVCP140.dll
 0001:0005bd16       ?tie@?$basic_ios@DU?$char_traits@D@std@@@std@@QEBAPEAV?$basic_ostream@DU?$char_traits@D@std@@@2@XZ 000000018005cd16 f   msvcprt:MSVCP140.dll
 0001:0005bd1c       ?rdbuf@?$basic_ios@DU?$char_traits@D@std@@@std@@QEBAPEAV?$basic_streambuf@DU?$char_traits@D@std@@@2@XZ 000000018005cd1c f   msvcprt:MSVCP140.dll
 0001:0005bd22       ?fill@?$basic_ios@DU?$char_traits@D@std@@@std@@QEBADXZ 000000018005cd22 f   msvcprt:MSVCP140.dll
 0001:0005bd28       ?widen@?$basic_ios@DU?$char_traits@D@std@@@std@@QEBADD@Z 000000018005cd28 f   msvcprt:MSVCP140.dll
 0001:0005bd2e       ?_Osfx@?$basic_ostream@DU?$char_traits@D@std@@@std@@QEAAXXZ 000000018005cd2e f   msvcprt:MSVCP140.dll
 0001:0005bd34       ??6?$basic_ostream@DU?$char_traits@D@std@@@std@@QEAAAEAV01@P6AAEAV01@AEAV01@@Z@Z 000000018005cd34 f   msvcprt:MSVCP140.dll
 0001:0005bd3a       ?put@?$basic_ostream@DU?$char_traits@D@std@@@std@@QEAAAEAV12@D@Z 000000018005cd3a f   msvcprt:MSVCP140.dll
 0001:0005bd40       ?flush@?$basic_ostream@DU?$char_traits@D@std@@@std@@QEAAAEAV12@XZ 000000018005cd40 f   msvcprt:MSVCP140.dll
 0001:0005bd46       RtlCaptureContext          000000018005cd46 f   kernel32:KERNEL32.dll
 0001:0005bd4c       RtlLookupFunctionEntry     000000018005cd4c f   kernel32:KERNEL32.dll
 0001:0005bd52       RtlVirtualUnwind           000000018005cd52 f   kernel32:KERNEL32.dll
 0001:0005bd58       UnhandledExceptionFilter   000000018005cd58 f   kernel32:KERNEL32.dll
 0001:0005bd5e       SetUnhandledExceptionFilter 000000018005cd5e f   kernel32:KERNEL32.dll
 0001:0005bd64       GetCurrentProcess          000000018005cd64 f   kernel32:KERNEL32.dll
 0001:0005bd6a       TerminateProcess           000000018005cd6a f   kernel32:KERNEL32.dll
 0001:0005bd70       IsProcessorFeaturePresent  000000018005cd70 f   kernel32:KERNEL32.dll
 0001:0005bd76       QueryPerformanceCounter    000000018005cd76 f   kernel32:KERNEL32.dll
 0001:0005bd7c       GetCurrentProcessId        000000018005cd7c f   kernel32:KERNEL32.dll
 0001:0005bd82       GetCurrentThreadId         000000018005cd82 f   kernel32:KERNEL32.dll
 0001:0005bd88       GetSystemTimeAsFileTime    000000018005cd88 f   kernel32:KERNEL32.dll
 0001:0005bd8e       DisableThreadLibraryCalls  000000018005cd8e f   kernel32:KERNEL32.dll
 0001:0005bd94       InitializeSListHead        000000018005cd94 f   kernel32:KERNEL32.dll
 0001:0005bd9a       IsDebuggerPresent          000000018005cd9a f   kernel32:KERNEL32.dll
 0001:0005bda0       GetStartupInfoW            000000018005cda0 f   kernel32:KERNEL32.dll
 0001:0005bda6       GetModuleHandleW           000000018005cda6 f   kernel32:KERNEL32.dll
 0001:0005bdac       memcpy                     000000018005cdac f   vcruntime:VCRUNTIME140.dll
 0001:0005bdb2       memset                     000000018005cdb2 f   vcruntime:VCRUNTIME140.dll
 0001:0005bdb8       memmove                    000000018005cdb8 f   vcruntime:VCRUNTIME140.dll
 0001:0005bdbe       __std_exception_copy       000000018005cdbe f   vcruntime:VCRUNTIME140.dll
 0001:0005bdc4       __std_exception_destroy    000000018005cdc4 f   vcruntime:VCRUNTIME140.dll
 0001:0005bdca       _CxxThrowException         000000018005cdca f   vcruntime:VCRUNTIME140.dll
 0001:0005bdd0       __CxxFrameHandler4         000000018005cdd0 f   vcruntime:VCRUNTIME140_1.dll
 0001:0005bdd6       __C_specific_handler       000000018005cdd6 f   vcruntime:VCRUNTIME140.dll
 0001:0005bddc       __std_type_info_destroy_list 000000018005cddc f   vcruntime:VCRUNTIME140.dll
 0001:0005bde2       __current_exception        000000018005cde2 f   vcruntime:VCRUNTIME140.dll
 0001:0005bde8       __current_exception_context 000000018005cde8 f   vcruntime:VCRUNTIME140.dll
 0001:0005bdee       strcmp                     000000018005cdee f   ucrt:api-ms-win-crt-string-l1-1-0.dll
 0001:0005bdf4       strcat                     000000018005cdf4 f   ucrt:api-ms-win-crt-string-l1-1-0.dll
 0001:0005bdfa       __stdio_common_vsprintf    000000018005cdfa f   ucrt:api-ms-win-crt-stdio-l1-1-0.dll
 0001:0005be00       free                       000000018005ce00 f   ucrt:api-ms-win-crt-heap-l1-1-0.dll
 0001:0005be06       malloc                     000000018005ce06 f   ucrt:api-ms-win-crt-heap-l1-1-0.dll
 0001:0005be0c       strlen                     000000018005ce0c f   ucrt:api-ms-win-crt-string-l1-1-0.dll
 0001:0005be12       fabs                       000000018005ce12 f   ucrt:api-ms-win-crt-math-l1-1-0.dll
 0001:0005be18       sqrt                       000000018005ce18 f   ucrt:api-ms-win-crt-math-l1-1-0.dll
 0001:0005be1e       realloc                    000000018005ce1e f   ucrt:api-ms-win-crt-heap-l1-1-0.dll
 0001:0005be24       qsort                      000000018005ce24 f   ucrt:api-ms-win-crt-utility-l1-1-0.dll
 0001:0005be2a       fmin                       000000018005ce2a f   ucrt:api-ms-win-crt-math-l1-1-0.dll
 0001:0005be30       fclose                     000000018005ce30 f   ucrt:api-ms-win-crt-stdio-l1-1-0.dll
 0001:0005be36       fopen                      000000018005ce36 f   ucrt:api-ms-win-crt-stdio-l1-1-0.dll
 0001:0005be3c       __stdio_common_vfprintf    000000018005ce3c f   ucrt:api-ms-win-crt-stdio-l1-1-0.dll
 0001:0005be42       _invalid_parameter_noinfo_noreturn 000000018005ce42 f   ucrt:api-ms-win-crt-runtime-l1-1-0.dll
 0001:0005be48       strcpy                     000000018005ce48 f   ucrt:api-ms-win-crt-string-l1-1-0.dll
 0001:0005be4e       _callnewh                  000000018005ce4e f   ucrt:api-ms-win-crt-heap-l1-1-0.dll
 0001:0005be54       _initterm                  000000018005ce54 f   ucrt:api-ms-win-crt-runtime-l1-1-0.dll
 0001:0005be5a       _initterm_e                000000018005ce5a f   ucrt:api-ms-win-crt-runtime-l1-1-0.dll
 0001:0005be60       _seh_filter_dll            000000018005ce60 f   ucrt:api-ms-win-crt-runtime-l1-1-0.dll
 0001:0005be66       _configure_narrow_argv     000000018005ce66 f   ucrt:api-ms-win-crt-runtime-l1-1-0.dll
 0001:0005be6c       _initialize_narrow_environment 000000018005ce6c f   ucrt:api-ms-win-crt-runtime-l1-1-0.dll
 0001:0005be72       _initialize_onexit_table   000000018005ce72 f   ucrt:api-ms-win-crt-runtime-l1-1-0.dll
 0001:0005be78       _register_onexit_function  000000018005ce78 f   ucrt:api-ms-win-crt-runtime-l1-1-0.dll
 0001:0005be7e       _execute_onexit_table      000000018005ce7e f   ucrt:api-ms-win-crt-runtime-l1-1-0.dll
 0001:0005be84       _crt_atexit                000000018005ce84 f   ucrt:api-ms-win-crt-runtime-l1-1-0.dll
 0001:0005be8a       _crt_at_quick_exit         000000018005ce8a f   ucrt:api-ms-win-crt-runtime-l1-1-0.dll
 0001:0005be90       _cexit                     000000018005ce90 f   ucrt:api-ms-win-crt-runtime-l1-1-0.dll
 0001:0005be96       terminate                  000000018005ce96 f   ucrt:api-ms-win-crt-runtime-l1-1-0.dll
 0001:0005be9c       __acrt_initialize          000000018005ce9c f   MSVCRT:ucrt_stubs.obj
 0001:0005be9c       __vcrt_initialize          000000018005ce9c f   MSVCRT:ucrt_stubs.obj
 0001:0005be9c       __scrt_stub_for_acrt_initialize 000000018005ce9c f   MSVCRT:ucrt_stubs.obj
 0001:0005bea0       __vcrt_thread_attach       000000018005cea0 f   MSVCRT:ucrt_stubs.obj
 0001:0005bea0       __scrt_stub_for_acrt_thread_attach 000000018005cea0 f   MSVCRT:ucrt_stubs.obj
 0001:0005bea0       __acrt_thread_attach       000000018005cea0 f   MSVCRT:ucrt_stubs.obj
 0001:0005bea4       __scrt_stub_for_acrt_thread_detach 000000018005cea4 f   MSVCRT:ucrt_stubs.obj
 0001:0005bea4       __vcrt_thread_detach       000000018005cea4 f   MSVCRT:ucrt_stubs.obj
 0001:0005bea4       __acrt_thread_detach       000000018005cea4 f   MSVCRT:ucrt_stubs.obj
 0001:0005bea8       __scrt_stub_for_acrt_uninitialize 000000018005cea8 f   MSVCRT:ucrt_stubs.obj
 0001:0005bea8       __vcrt_uninitialize        000000018005cea8 f   MSVCRT:ucrt_stubs.obj
 0001:0005bea8       __acrt_uninitialize        000000018005cea8 f   MSVCRT:ucrt_stubs.obj
 0001:0005beac       __acrt_uninitialize_critical 000000018005ceac f   MSVCRT:ucrt_stubs.obj
 0001:0005beac       __scrt_stub_for_acrt_uninitialize_critical 000000018005ceac f   MSVCRT:ucrt_stubs.obj
 0001:0005beac       __vcrt_uninitialize_critical 000000018005ceac f   MSVCRT:ucrt_stubs.obj
 0001:0005beb0       __scrt_stub_for_is_c_termination_complete 000000018005ceb0 f   MSVCRT:ucrt_stubs.obj
 0001:0005beb0       _is_c_termination_complete 000000018005ceb0 f   MSVCRT:ucrt_stubs.obj
 0001:0005bed0       _guard_dispatch_icall_nop  000000018005ced0 f   MSVCRT:guard_dispatch.obj
 0001:0005bef0       _guard_xfg_dispatch_icall_nop 000000018005cef0 f   MSVCRT:guard_xfg_dispatch.obj
 0002:00000000       __imp_GetCurrentProcessId  000000018005e000     kernel32:KERNEL32.dll
 0002:00000008       __imp_GetModuleHandleW     000000018005e008     kernel32:KERNEL32.dll
 0002:00000010       __imp_GetStartupInfoW      000000018005e010     kernel32:KERNEL32.dll
 0002:00000018       __imp_IsDebuggerPresent    000000018005e018     kernel32:KERNEL32.dll
 0002:00000020       __imp_InitializeSListHead  000000018005e020     kernel32:KERNEL32.dll
 0002:00000028       __imp_DisableThreadLibraryCalls 000000018005e028     kernel32:KERNEL32.dll
 0002:00000030       __imp_GetSystemTimeAsFileTime 000000018005e030     kernel32:KERNEL32.dll
 0002:00000038       __imp_GetCurrentThreadId   000000018005e038     kernel32:KERNEL32.dll
 0002:00000040       __imp_QueryPerformanceCounter 000000018005e040     kernel32:KERNEL32.dll
 0002:00000048       __imp_IsProcessorFeaturePresent 000000018005e048     kernel32:KERNEL32.dll
 0002:00000050       __imp_TerminateProcess     000000018005e050     kernel32:KERNEL32.dll
 0002:00000058       __imp_GetCurrentProcess    000000018005e058     kernel32:KERNEL32.dll
 0002:00000060       __imp_SetUnhandledExceptionFilter 000000018005e060     kernel32:KERNEL32.dll
 0002:00000068       __imp_UnhandledExceptionFilter 000000018005e068     kernel32:KERNEL32.dll
 0002:00000070       __imp_RtlVirtualUnwind     000000018005e070     kernel32:KERNEL32.dll
 0002:00000078       __imp_RtlLookupFunctionEntry 000000018005e078     kernel32:KERNEL32.dll
 0002:00000080       __imp_RtlCaptureContext    000000018005e080     kernel32:KERNEL32.dll
 0002:00000088       \177KERNEL32_NULL_THUNK_DATA 000000018005e088     kernel32:KERNEL32.dll
 0002:00000090       __imp_?flush@?$basic_ostream@DU?$char_traits@D@std@@@std@@QEAAAEAV12@XZ 000000018005e090     msvcprt:MSVCP140.dll
 0002:00000098       __imp_?put@?$basic_ostream@DU?$char_traits@D@std@@@std@@QEAAAEAV12@D@Z 000000018005e098     msvcprt:MSVCP140.dll
 0002:000000a0       __imp_??6?$basic_ostream@DU?$char_traits@D@std@@@std@@QEAAAEAV01@P6AAEAV01@AEAV01@@Z@Z 000000018005e0a0     msvcprt:MSVCP140.dll
 0002:000000a8       __imp_?_Osfx@?$basic_ostream@DU?$char_traits@D@std@@@std@@QEAAXXZ 000000018005e0a8     msvcprt:MSVCP140.dll
 0002:000000b0       __imp_?widen@?$basic_ios@DU?$char_traits@D@std@@@std@@QEBADD@Z 000000018005e0b0     msvcprt:MSVCP140.dll
 0002:000000b8       __imp_?fill@?$basic_ios@DU?$char_traits@D@std@@@std@@QEBADXZ 000000018005e0b8     msvcprt:MSVCP140.dll
 0002:000000c0       __imp_?rdbuf@?$basic_ios@DU?$char_traits@D@std@@@std@@QEBAPEAV?$basic_streambuf@DU?$char_traits@D@std@@@2@XZ 000000018005e0c0     msvcprt:MSVCP140.dll
 0002:000000c8       __imp_?tie@?$basic_ios@DU?$char_traits@D@std@@@std@@QEBAPEAV?$basic_ostream@DU?$char_traits@D@std@@@2@XZ 000000018005e0c8     msvcprt:MSVCP140.dll
 0002:000000d0       __imp_?setstate@?$basic_ios@DU?$char_traits@D@std@@@std@@QEAAXH_N@Z 000000018005e0d0     msvcprt:MSVCP140.dll
 0002:000000d8       __imp_?width@ios_base@std@@QEBA_JXZ 000000018005e0d8     msvcprt:MSVCP140.dll
 0002:000000e0       __imp_?sputn@?$basic_streambuf@DU?$char_traits@D@std@@@std@@QEAA_JPEBD_J@Z 000000018005e0e0     msvcprt:MSVCP140.dll
 0002:000000e8       __imp_?sputc@?$basic_streambuf@DU?$char_traits@D@std@@@std@@QEAAHD@Z 000000018005e0e8     msvcprt:MSVCP140.dll
 0002:000000f0       __imp_?width@ios_base@std@@QEAA_J_J@Z 000000018005e0f0     msvcprt:MSVCP140.dll
 0002:000000f8       __imp_?_Xlength_error@std@@YAXPEBD@Z 000000018005e0f8     msvcprt:MSVCP140.dll
 0002:00000100       __imp_?uncaught_exception@std@@YA_NXZ 000000018005e100     msvcprt:MSVCP140.dll
 0002:00000108       __imp_?good@ios_base@std@@QEBA_NXZ 000000018005e108     msvcprt:MSVCP140.dll
 0002:00000110       __imp_?flags@ios_base@std@@QEBAHXZ 000000018005e110     msvcprt:MSVCP140.dll
 0002:00000118       __imp_?cout@std@@3V?$basic_ostream@DU?$char_traits@D@std@@@1@A 000000018005e118     msvcprt:MSVCP140.dll
 0002:00000120       \177MSVCP140_NULL_THUNK_DATA 000000018005e120     msvcprt:MSVCP140.dll
 0002:00000128       __imp___current_exception_context 000000018005e128     vcruntime:VCRUNTIME140.dll
 0002:00000130       __imp___current_exception  000000018005e130     vcruntime:VCRUNTIME140.dll
 0002:00000138       __imp___std_type_info_destroy_list 000000018005e138     vcruntime:VCRUNTIME140.dll
 0002:00000140       __imp___C_specific_handler 000000018005e140     vcruntime:VCRUNTIME140.dll
 0002:00000148       __imp_memset               000000018005e148     vcruntime:VCRUNTIME140.dll
 0002:00000150       __imp__CxxThrowException   000000018005e150     vcruntime:VCRUNTIME140.dll
 0002:00000158       __imp___std_exception_destroy 000000018005e158     vcruntime:VCRUNTIME140.dll
 0002:00000160       __imp___std_exception_copy 000000018005e160     vcruntime:VCRUNTIME140.dll
 0002:00000168       __imp_memmove              000000018005e168     vcruntime:VCRUNTIME140.dll
 0002:00000170       __imp_memcpy               000000018005e170     vcruntime:VCRUNTIME140.dll
 0002:00000178       \177VCRUNTIME140_NULL_THUNK_DATA 000000018005e178     vcruntime:VCRUNTIME140.dll
 0002:00000180       __imp___CxxFrameHandler4   000000018005e180     vcruntime:VCRUNTIME140_1.dll
 0002:00000188       \177VCRUNTIME140_1_NULL_THUNK_DATA 000000018005e188     vcruntime:VCRUNTIME140_1.dll
 0002:00000190       __imp_realloc              000000018005e190     ucrt:api-ms-win-crt-heap-l1-1-0.dll
 0002:00000198       __imp__callnewh            000000018005e198     ucrt:api-ms-win-crt-heap-l1-1-0.dll
 0002:000001a0       __imp_free                 000000018005e1a0     ucrt:api-ms-win-crt-heap-l1-1-0.dll
 0002:000001a8       __imp_malloc               000000018005e1a8     ucrt:api-ms-win-crt-heap-l1-1-0.dll
 0002:000001b0       \177api-ms-win-crt-heap-l1-1-0_NULL_THUNK_DATA 000000018005e1b0     ucrt:api-ms-win-crt-heap-l1-1-0.dll
 0002:000001b8       __imp_sqrt                 000000018005e1b8     ucrt:api-ms-win-crt-math-l1-1-0.dll
 0002:000001c0       __imp_fabs                 000000018005e1c0     ucrt:api-ms-win-crt-math-l1-1-0.dll
 0002:000001c8       __imp_fmin                 000000018005e1c8     ucrt:api-ms-win-crt-math-l1-1-0.dll
 0002:000001d0       \177api-ms-win-crt-math-l1-1-0_NULL_THUNK_DATA 000000018005e1d0     ucrt:api-ms-win-crt-math-l1-1-0.dll
 0002:000001d8       __imp__crt_at_quick_exit   000000018005e1d8     ucrt:api-ms-win-crt-runtime-l1-1-0.dll
 0002:000001e0       __imp__crt_atexit          000000018005e1e0     ucrt:api-ms-win-crt-runtime-l1-1-0.dll
 0002:000001e8       __imp__execute_onexit_table 000000018005e1e8     ucrt:api-ms-win-crt-runtime-l1-1-0.dll
 0002:000001f0       __imp__register_onexit_function 000000018005e1f0     ucrt:api-ms-win-crt-runtime-l1-1-0.dll
 0002:000001f8       __imp__invalid_parameter_noinfo_noreturn 000000018005e1f8     ucrt:api-ms-win-crt-runtime-l1-1-0.dll
 0002:00000200       __imp__initialize_onexit_table 000000018005e200     ucrt:api-ms-win-crt-runtime-l1-1-0.dll
 0002:00000208       __imp__cexit               000000018005e208     ucrt:api-ms-win-crt-runtime-l1-1-0.dll
 0002:00000210       __imp_terminate            000000018005e210     ucrt:api-ms-win-crt-runtime-l1-1-0.dll
 0002:00000218       __imp__initterm            000000018005e218     ucrt:api-ms-win-crt-runtime-l1-1-0.dll
 0002:00000220       __imp__initterm_e          000000018005e220     ucrt:api-ms-win-crt-runtime-l1-1-0.dll
 0002:00000228       __imp__seh_filter_dll      000000018005e228     ucrt:api-ms-win-crt-runtime-l1-1-0.dll
 0002:00000230       __imp__configure_narrow_argv 000000018005e230     ucrt:api-ms-win-crt-runtime-l1-1-0.dll
 0002:00000238       __imp__initialize_narrow_environment 000000018005e238     ucrt:api-ms-win-crt-runtime-l1-1-0.dll
 0002:00000240       \177api-ms-win-crt-runtime-l1-1-0_NULL_THUNK_DATA 000000018005e240     ucrt:api-ms-win-crt-runtime-l1-1-0.dll
 0002:00000248       __imp_fopen                000000018005e248     ucrt:api-ms-win-crt-stdio-l1-1-0.dll
 0002:00000250       __imp_fclose               000000018005e250     ucrt:api-ms-win-crt-stdio-l1-1-0.dll
 0002:00000258       __imp___stdio_common_vsprintf 000000018005e258     ucrt:api-ms-win-crt-stdio-l1-1-0.dll
 0002:00000260       __imp___stdio_common_vfprintf 000000018005e260     ucrt:api-ms-win-crt-stdio-l1-1-0.dll
 0002:00000268       \177api-ms-win-crt-stdio-l1-1-0_NULL_THUNK_DATA 000000018005e268     ucrt:api-ms-win-crt-stdio-l1-1-0.dll
 0002:00000270       __imp_strcat               000000018005e270     ucrt:api-ms-win-crt-string-l1-1-0.dll
 0002:00000278       __imp_strcmp               000000018005e278     ucrt:api-ms-win-crt-string-l1-1-0.dll
 0002:00000280       __imp_strlen               000000018005e280     ucrt:api-ms-win-crt-string-l1-1-0.dll
 0002:00000288       __imp_strcpy               000000018005e288     ucrt:api-ms-win-crt-string-l1-1-0.dll
 0002:00000290       \177api-ms-win-crt-string-l1-1-0_NULL_THUNK_DATA 000000018005e290     ucrt:api-ms-win-crt-string-l1-1-0.dll
 0002:00000298       __imp_qsort                000000018005e298     ucrt:api-ms-win-crt-utility-l1-1-0.dll
 0002:000002a0       \177api-ms-win-crt-utility-l1-1-0_NULL_THUNK_DATA 000000018005e2a0     ucrt:api-ms-win-crt-utility-l1-1-0.dll
 0002:000002a8       __imp_covrtCreateStateflowInstanceData 000000018005e2a8     libcovrt:libcovrt.dll
 0002:000002b0       __imp_covrtEmlFcnEval      000000018005e2b0     libcovrt:libcovrt.dll
 0002:000002b8       __imp_covrtEmlFcnInitFcn   000000018005e2b8     libcovrt:libcovrt.dll
 0002:000002c0       __imp_covrtEmlInitFcn      000000018005e2c0     libcovrt:libcovrt.dll
 0002:000002c8       __imp_covrtSigUpdateFcn    000000018005e2c8     libcovrt:libcovrt.dll
 0002:000002d0       __imp_covrtChartInitFcn    000000018005e2d0     libcovrt:libcovrt.dll
 0002:000002d8       __imp_covrtStateInitFcn    000000018005e2d8     libcovrt:libcovrt.dll
 0002:000002e0       __imp_covrtTransInitFcn    000000018005e2e0     libcovrt:libcovrt.dll
 0002:000002e8       __imp_covrtDeleteStateflowInstanceData 000000018005e2e8     libcovrt:libcovrt.dll
 0002:000002f0       \177libcovrt_NULL_THUNK_DATA 000000018005e2f0     libcovrt:libcovrt.dll
 0002:000002f8       __imp_emlrtSubAssignSizeCheck1dR2017a 000000018005e2f8     libemlrt:libemlrt.dll
 0002:00000300       __imp_emlrtSubAssignSizeCheckR2012b 000000018005e300     libemlrt:libemlrt.dll
 0002:00000308       __imp_emlrtSizeMulR2012b   000000018005e308     libemlrt:libemlrt.dll
 0002:00000310       __imp_emlrtDimSizeImpxCheckR2021b 000000018005e310     libemlrt:libemlrt.dll
 0002:00000318       __imp_emlrtDynamicBoundsCheckR2012b 000000018005e318     libemlrt:libemlrt.dll
 0002:00000320       __imp_emlrtHeapAllocationErrorR2012b 000000018005e320     libemlrt:libemlrt.dll
 0002:00000328       __imp_emlrtPushHeapReferenceStackR2021a 000000018005e328     libemlrt:libemlrt.dll
 0002:00000330       __imp_emlrtHeapReferenceStackLeaveFcnR2012b 000000018005e330     libemlrt:libemlrt.dll
 0002:00000338       __imp_emlrtHeapReferenceStackEnterFcnR2012b 000000018005e338     libemlrt:libemlrt.dll
 0002:00000340       __imp_emlrtFreeMex         000000018005e340     libemlrt:libemlrt.dll
 0002:00000348       __imp_emlrtMallocMex       000000018005e348     libemlrt:libemlrt.dll
 0002:00000350       __imp_emlrtNonNegativeCheckR2012b 000000018005e350     libemlrt:libemlrt.dll
 0002:00000358       __imp_emlrtLicenseCheckR2022a 000000018005e358     libemlrt:libemlrt.dll
 0002:00000360       __imp_emlrtIntegerCheckR2012b 000000018005e360     libemlrt:libemlrt.dll
 0002:00000368       __imp_emlrtForLoopVectorCheckR2021a 000000018005e368     libemlrt:libemlrt.dll
 0002:00000370       __imp_emlrtDimSizeGeqCheckR2012b 000000018005e370     libemlrt:libemlrt.dll
 0002:00000378       \177libemlrt_NULL_THUNK_DATA 000000018005e378     libemlrt:libemlrt.dll
 0002:00000380       __imp_mexMakeArrayPersistent_800 000000018005e380     libmex:libmex.dll
 0002:00000388       __imp_mexLock_800          000000018005e388     libmex:libmex.dll
 0002:00000390       __imp_mexUnlock_800        000000018005e390     libmex:libmex.dll
 0002:00000398       __imp_mexIsLocked_800      000000018005e398     libmex:libmex.dll
 0002:000003a0       __imp_mexWarnMsgTxt_800    000000018005e3a0     libmex:libmex.dll
 0002:000003a8       __imp_mexErrMsgTxt_800     000000018005e3a8     libmex:libmex.dll
 0002:000003b0       __imp_mexCallMATLAB_800    000000018005e3b0     libmex:libmex.dll
 0002:000003b8       \177libmex_NULL_THUNK_DATA 000000018005e3b8     libmex:libmex.dll
 0002:000003c0       __imp_muDoubleScalarAtan2  000000018005e3c0     libmwmathutil:libmwmathutil.dll
 0002:000003c8       __imp_muDoubleScalarSin    000000018005e3c8     libmwmathutil:libmwmathutil.dll
 0002:000003d0       __imp_muDoubleScalarIsInf  000000018005e3d0     libmwmathutil:libmwmathutil.dll
 0002:000003d8       __imp_muDoubleScalarSqrt   000000018005e3d8     libmwmathutil:libmwmathutil.dll
 0002:000003e0       __imp_muDoubleScalarCos    000000018005e3e0     libmwmathutil:libmwmathutil.dll
 0002:000003e8       __imp_muIntScalarMax_sint32 000000018005e3e8     libmwmathutil:libmwmathutil.dll
 0002:000003f0       __imp_muDoubleScalarIsNaN  000000018005e3f0     libmwmathutil:libmwmathutil.dll
 0002:000003f8       __imp_muDoubleScalarFloor  000000018005e3f8     libmwmathutil:libmwmathutil.dll
 0002:00000400       \177libmwmathutil_NULL_THUNK_DATA 000000018005e400     libmwmathutil:libmwmathutil.dll
 0002:00000408       __imp_mxIsChar_800         000000018005e408     libmx:libmx.dll
 0002:00000410       __imp_mxGetScalar_800      000000018005e410     libmx:libmx.dll
 0002:00000418       __imp_mxGetPr_800          000000018005e418     libmx:libmx.dll
 0002:00000420       __imp_mxDestroyArray_800   000000018005e420     libmx:libmx.dll
 0002:00000428       __imp_mxCreateDoubleScalar_800 000000018005e428     libmx:libmx.dll
 0002:00000430       __imp_mxGetN_800           000000018005e430     libmx:libmx.dll
 0002:00000438       __imp_mxIsComplex_800      000000018005e438     libmx:libmx.dll
 0002:00000440       __imp_mxIsNumeric_800      000000018005e440     libmx:libmx.dll
 0002:00000448       __imp_mxGetClassID_800     000000018005e448     libmx:libmx.dll
 0002:00000450       __imp_mxGetM_800           000000018005e450     libmx:libmx.dll
 0002:00000458       __imp_mxCalloc_800         000000018005e458     libmx:libmx.dll
 0002:00000460       __imp_mxGetNaN_800         000000018005e460     libmx:libmx.dll
 0002:00000468       __imp_mxCreateStructMatrix_800 000000018005e468     libmx:libmx.dll
 0002:00000470       __imp_mxCreateCellMatrix_800 000000018005e470     libmx:libmx.dll
 0002:00000478       __imp_mxCreateString_800   000000018005e478     libmx:libmx.dll
 0002:00000480       __imp_mxSetField_800       000000018005e480     libmx:libmx.dll
 0002:00000488       __imp_mxSetCell_800        000000018005e488     libmx:libmx.dll
 0002:00000490       __imp_mxIsEmpty_800        000000018005e490     libmx:libmx.dll
 0002:00000498       __imp_mxDuplicateArray_800 000000018005e498     libmx:libmx.dll
 0002:000004a0       __imp_mxGetString_800      000000018005e4a0     libmx:libmx.dll
 0002:000004a8       __imp_mxCreateDoubleMatrix_800 000000018005e4a8     libmx:libmx.dll
 0002:000004b0       \177libmx_NULL_THUNK_DATA  000000018005e4b0     libmx:libmx.dll
 0002:000004b8       __imp_utFree               000000018005e4b8     libut:libut.dll
 0002:000004c0       __imp_utMalloc             000000018005e4c0     libut:libut.dll
 0002:000004c8       \177libut_NULL_THUNK_DATA  000000018005e4c8     libut:libut.dll
 0002:000004d0       __imp_sf_mex_decode        000000018005e4d0     sf_runtime:sf_runtime.dll
 0002:000004d8       __imp_sf_clear_error_manager_info 000000018005e4d8     sf_runtime:sf_runtime.dll
 0002:000004e0       __imp_sf_mex_error_direct_call 000000018005e4e0     sf_runtime:sf_runtime.dll
 0002:000004e8       __imp_getRuntimeInstanceInfoAsVoid 000000018005e4e8     sf_runtime:sf_runtime.dll
 0002:000004f0       __imp_call_sf_machine_global_method_dispatcher 000000018005e4f0     sf_runtime:sf_runtime.dll
 0002:000004f8       __imp_callMdlMethodAndReportError 000000018005e4f8     sf_runtime:sf_runtime.dll
 0002:00000500       __imp_sf_get_hasSeparateUpdateOutputs 000000018005e500     sf_runtime:sf_runtime.dll
 0002:00000508       __imp_sf_get_ChartInfoStruct_CodeGen 000000018005e508     sf_runtime:sf_runtime.dll
 0002:00000510       __imp_ssGetOutputPortSignal_wrapper 000000018005e510     sf_runtime:sf_runtime.dll
 0002:00000518       __imp_ssGetInputPortSignal_wrapper 000000018005e518     sf_runtime:sf_runtime.dll
 0002:00000520       __imp_sf_mex_import        000000018005e520     sf_runtime:sf_runtime.dll
 0002:00000528       __imp_sf_mex_destroy       000000018005e528     sf_runtime:sf_runtime.dll
 0002:00000530       __imp_sf_mex_dup           000000018005e530     sf_runtime:sf_runtime.dll
 0002:00000538       __imp_sf_mex_assign        000000018005e538     sf_runtime:sf_runtime.dll
 0002:00000540       __imp_sf_mex_getcell       000000018005e540     sf_runtime:sf_runtime.dll
 0002:00000548       __imp_sf_mex_setcell       000000018005e548     sf_runtime:sf_runtime.dll
 0002:00000550       __imp_sf_mex_createcellmatrix 000000018005e550     sf_runtime:sf_runtime.dll
 0002:00000558       __imp_sf_mex_create        000000018005e558     sf_runtime:sf_runtime.dll
 0002:00000560       __imp_sf_mex_error_message 000000018005e560     sf_runtime:sf_runtime.dll
 0002:00000568       __imp_sf_mex_call          000000018005e568     sf_runtime:sf_runtime.dll
 0002:00000570       __imp_mdlProcessParamsCommon 000000018005e570     sf_runtime:sf_runtime.dll
 0002:00000578       __imp_supportsLegacyBehaviorForPersistentVarInContinuousTime 000000018005e578     sf_runtime:sf_runtime.dll
 0002:00000580       __imp_sfHasContStates      000000018005e580     sf_runtime:sf_runtime.dll
 0002:00000588       __imp_sf_error_out_about_continuous_sample_time_with_persistent_vars 000000018005e588     sf_runtime:sf_runtime.dll
 0002:00000590       __imp_sf_set_work_widths   000000018005e590     sf_runtime:sf_runtime.dll
 0002:00000598       __imp_sf_get_time          000000018005e598     sf_runtime:sf_runtime.dll
 0002:000005a0       __imp_sf_clear_rtw_identifier 000000018005e5a0     sf_runtime:sf_runtime.dll
 0002:000005a8       __imp_sim_mode_is_external 000000018005e5a8     sf_runtime:sf_runtime.dll
 0002:000005b0       __imp_sim_mode_is_rtw_gen  000000018005e5b0     sf_runtime:sf_runtime.dll
 0002:000005b8       __imp_sfSetAnimationVectors 000000018005e5b8     sf_runtime:sf_runtime.dll
 0002:000005c0       __imp_sf_get_chart_instance_ptr 000000018005e5c0     sf_runtime:sf_runtime.dll
 0002:000005c8       __imp_sfrtGetCovrtInstance 000000018005e5c8     sf_runtime:sf_runtime.dll
 0002:000005d0       __imp_sfrtGetEmlrtCtx      000000018005e5d0     sf_runtime:sf_runtime.dll
 0002:000005d8       __imp_sf_reset_warnings_ChartRunTimeInfo 000000018005e5d8     sf_runtime:sf_runtime.dll
 0002:000005e0       __imp_sf_free_ChartRunTimeInfo 000000018005e5e0     sf_runtime:sf_runtime.dll
 0002:000005e8       __imp_sf_init_ChartRunTimeInfo 000000018005e5e8     sf_runtime:sf_runtime.dll
 0002:000005f0       __imp_sf_load_rtw_optimization_info 000000018005e5f0     sf_runtime:sf_runtime.dll
 0002:000005f8       \177sf_runtime_NULL_THUNK_DATA 000000018005e5f8     sf_runtime:sf_runtime.dll
 0002:00000600       __guard_check_icall_fptr   000000018005e600     MSVCRT:guard_support.obj
 0002:00000608       __guard_xfg_check_icall_fptr 000000018005e608     MSVCRT:guard_support.obj
 0002:00000610       __guard_dispatch_icall_fptr 000000018005e610     MSVCRT:guard_support.obj
 0002:00000618       __guard_xfg_dispatch_icall_fptr 000000018005e618     MSVCRT:guard_support.obj
 0002:00000620       __guard_xfg_table_dispatch_icall_fptr 000000018005e620     MSVCRT:guard_support.obj
 0002:00000628       __xc_a                     000000018005e628     MSVCRT:initializers.obj
 0002:00000630       __xc_z                     000000018005e630     MSVCRT:initializers.obj
 0002:00000638       __xi_a                     000000018005e638     MSVCRT:initializers.obj
 0002:00000640       __xi_z                     000000018005e640     MSVCRT:initializers.obj
 0002:00000648       __xp_a                     000000018005e648     MSVCRT:initializers.obj
 0002:00000650       __xp_z                     000000018005e650     MSVCRT:initializers.obj
 0002:00000658       __xt_a                     000000018005e658     MSVCRT:initializers.obj
 0002:00000660       __xt_z                     000000018005e660     MSVCRT:initializers.obj
 0002:00000670       __real@41887470a0000000    000000018005e670     Modele_3D_sfun.obj
 0002:00000678       __real@41a935fb7a000000    000000018005e678     Modele_3D_sfun.obj
 0002:00000680       __real@41b82a9620000000    000000018005e680     Modele_3D_sfun.obj
 0002:00000688       __real@41c25c6bf7000000    000000018005e688     Modele_3D_sfun.obj
 0002:00000690       __real@41d360dc01400000    000000018005e690     Modele_3D_sfun.obj
 0002:00000698       __real@41d6fe0789400000    000000018005e698     Modele_3D_sfun.obj
 0002:000006a0       __real@41d75ab224c00000    000000018005e6a0     Modele_3D_sfun.obj
 0002:000006a8       __real@41ddbf0905400000    000000018005e6a8     Modele_3D_sfun.obj
 0002:000006b0       __real@41e7c462f4e00000    000000018005e6b0     Modele_3D_sfun.obj
 0002:000006b8       __real@41e8e9abb9c00000    000000018005e6b8     Modele_3D_sfun.obj
 0002:000006c0       __real@41ec720f29e00000    000000018005e6c0     Modele_3D_sfun.obj
 0002:000006c8       __real@41edbbcd2b000000    000000018005e6c8     Modele_3D_sfun.obj
 0002:000006d8       __real@0000000000000000    000000018005e6d8     c2_Modele_3D.obj
 0002:000006e0       __real@3ca0000000000000    000000018005e6e0     c2_Modele_3D.obj
 0002:000006e8       __real@3ce4000000000000    000000018005e6e8     c2_Modele_3D.obj
 0002:000006f0       __real@3fe0000000000000    000000018005e6f0     c2_Modele_3D.obj
 0002:000006f8       __real@3ff0000000000000    000000018005e6f8     c2_Modele_3D.obj
 0002:00000700       __real@3ffaf2a880c09110    000000018005e700     c2_Modele_3D.obj
 0002:00000708       __real@4000000000000000    000000018005e708     c2_Modele_3D.obj
 0002:00000710       __real@4004aa29abaf85ca    000000018005e710     c2_Modele_3D.obj
 0002:00000718       __real@400f6a7a2955385e    000000018005e718     c2_Modele_3D.obj
 0002:00000720       __real@4010000000000000    000000018005e720     c2_Modele_3D.obj
 0002:00000728       __real@4014000000000000    000000018005e728     c2_Modele_3D.obj
 0002:00000730       __real@4018000000000000    000000018005e730     c2_Modele_3D.obj
 0002:00000738       __real@401921fb54442d18    000000018005e738     c2_Modele_3D.obj
 0002:00000740       __real@401c000000000000    000000018005e740     c2_Modele_3D.obj
 0002:00000748       __real@401f6a7a2955385e    000000018005e748     c2_Modele_3D.obj
 0002:00000750       __real@4020000000000000    000000018005e750     c2_Modele_3D.obj
 0002:00000758       __real@4022000000000000    000000018005e758     c2_Modele_3D.obj
 0002:00000760       __real@4024000000000000    000000018005e760     c2_Modele_3D.obj
 0002:00000768       __real@4026000000000000    000000018005e768     c2_Modele_3D.obj
 0002:00000770       __real@4028000000000000    000000018005e770     c2_Modele_3D.obj
 0002:00000778       __real@402c000000000000    000000018005e778     c2_Modele_3D.obj
 0002:00000780       __real@402e000000000000    000000018005e780     c2_Modele_3D.obj
 0002:00000788       __real@404ca5dc1a63c1f8    000000018005e788     c2_Modele_3D.obj
 0002:00000790       __real@404f000000000000    000000018005e790     c2_Modele_3D.obj
 0002:00000798       __real@4069000000000000    000000018005e798     c2_Modele_3D.obj
 0002:000007a0       __real@406c800000000000    000000018005e7a0     c2_Modele_3D.obj
 0002:000007a8       __real@4078d00000000000    000000018005e7a8     c2_Modele_3D.obj
 0002:000007b0       __real@4190000000000000    000000018005e7b0     c2_Modele_3D.obj
 0002:000007b8       __real@41d561a4a6c00000    000000018005e7b8     c2_Modele_3D.obj
 0002:000007c0       __real@41daf6e814400000    000000018005e7c0     c2_Modele_3D.obj
 0002:000007c8       __real@41dfffffffc00000    000000018005e7c8     c2_Modele_3D.obj
 0002:000007d0       __real@41e91d89d0600000    000000018005e7d0     c2_Modele_3D.obj
 0002:000007d8       __real@41edf6a655600000    000000018005e7d8     c2_Modele_3D.obj
 0002:000007e0       __real@bfe0000000000000    000000018005e7e0     c2_Modele_3D.obj
 0002:000007e8       __real@bfecc355ad3cf508    000000018005e7e8     c2_Modele_3D.obj
 0002:000007f0       __real@bff0000000000000    000000018005e7f0     c2_Modele_3D.obj
 0002:000007f8       __real@c00921fb54442d18    000000018005e7f8     c2_Modele_3D.obj
 0002:00000800       __real@c00f6a7a2955385e    000000018005e800     c2_Modele_3D.obj
 0002:00000808       __real@c014000000000000    000000018005e808     c2_Modele_3D.obj
 0002:00000810       __real@c1e0000000000000    000000018005e810     c2_Modele_3D.obj
 0002:00000820       __xmm@80000000000000008000000000000000 000000018005e820     c2_Modele_3D.obj
 0002:00000830       DYNAMIC_DIMENSION_DEF      000000018005e830     Modele_3D_sfun_registry.obj
 0002:00000848       __real@41602cbca0000000    000000018005e848     Modele_3D_sfun_registry.obj
 0002:00000850       __real@3cb0000000000000    000000018005e850     ccd_ccd.obj
 0002:00000858       __real@7fefffffffffffff    000000018005e858     ccd_polytope.obj
 0002:00000888       ??_7exception@std@@6B@     000000018005e888     collisioncodegen_CollisionGeometry.obj
 0002:00000898       ??_C@_0BC@EOODALEL@Unknown?5exception@ 000000018005e898     collisioncodegen_CollisionGeometry.obj
 0002:000008b8       ??_7bad_alloc@std@@6B@     000000018005e8b8     collisioncodegen_CollisionGeometry.obj
 0002:000008d0       ??_7bad_array_new_length@std@@6B@ 000000018005e8d0     collisioncodegen_CollisionGeometry.obj
 0002:000008e0       ??_C@_0BF@KINCDENJ@bad?5array?5new?5length@ 000000018005e8e0     collisioncodegen_CollisionGeometry.obj
 0002:00000900       ??_7CollisionGeometry@shared_robotics@@6B@ 000000018005e900     collisioncodegen_CollisionGeometry.obj
 0002:00000908       ??_C@_0BA@FOIKENOD@vector?5too?5long@ 000000018005e908     collisioncodegen_CollisionGeometry.obj
 0002:00000918       __real@3cd4000000000000    000000018005e918     collisioncodegen_CollisionGeometry.obj
 0002:00000928       ??_C@_0BA@JFNIOLAK@string?5too?5long@ 000000018005e928     collisioncodegen_api.obj
 0002:00000938       ??_C@_03ELMLMPLG@Box@      000000018005e938     collisioncodegen_api.obj
 0002:0000093c       ??_C@_06JBMJMGAL@Sphere@   000000018005e93c     collisioncodegen_api.obj
 0002:00000948       ??_C@_08OPEIJNOM@Cylinder@ 000000018005e948     collisioncodegen_api.obj
 0002:00000958       ??_C@_0P@FPLKDNIJ@ConvexMeshFull@ 000000018005e958     collisioncodegen_api.obj
 0002:00000968       ??_C@_07KAPIMIBP@Capsule@  000000018005e968     collisioncodegen_api.obj
 0002:00000970       ??_C@_0L@GMFHOMKA@ConvexMesh@ 000000018005e970     collisioncodegen_api.obj
 0002:00000980       __real@3eb0c6f7a0b5ed8d    000000018005e980     collisioncodegen_checkCollision.obj
 0002:00000988       __real@3f1a36e2eb1c432d    000000018005e988     collisioncodegen_checkCollision.obj
 0002:000009a8       ??_7type_info@@6B@         000000018005e9a8     MSVCRT:std_type_info_static.obj
 0002:000009b0       _pRawDllMain               000000018005e9b0     MSVCRT:dll_dllmain.obj
 0002:000009b0       _pDefaultRawDllMain        000000018005e9b0     MSVCRT:dll_dllmain.obj
 0002:000009b8       ??_C@_0P@GHFPNOJB@bad?5allocation@ 000000018005e9b8     MSVCRT:throw_bad_alloc.obj
 0002:000009d0       __xmm@ffffffffffffffffffffffffffffffff 000000018005e9d0     MSVCRT:utility.obj
 0002:00000a00       _load_config_used          000000018005ea00     MSVCRT:loadcfg.obj
 0002:00000b80       __CastGuardVftablesStart   000000018005eb80     MSVCRT:guard_support.obj
 0002:00000b88       __CastGuardVftablesEnd     000000018005eb88     MSVCRT:guard_support.obj
 0002:00000b90       ??_R4exception@std@@6B@    000000018005eb90     collisioncodegen_CollisionGeometry.obj
 0002:00000bb8       ??_R3exception@std@@8      000000018005ebb8     collisioncodegen_CollisionGeometry.obj
 0002:00000bd0       ??_R2exception@std@@8      000000018005ebd0     collisioncodegen_CollisionGeometry.obj
 0002:00000be0       ??_R1A@?0A@EA@exception@std@@8 000000018005ebe0     collisioncodegen_CollisionGeometry.obj
 0002:00000c08       ??_R4bad_alloc@std@@6B@    000000018005ec08     collisioncodegen_CollisionGeometry.obj
 0002:00000c30       ??_R3bad_alloc@std@@8      000000018005ec30     collisioncodegen_CollisionGeometry.obj
 0002:00000c48       ??_R2bad_alloc@std@@8      000000018005ec48     collisioncodegen_CollisionGeometry.obj
 0002:00000c60       ??_R1A@?0A@EA@bad_alloc@std@@8 000000018005ec60     collisioncodegen_CollisionGeometry.obj
 0002:00000c88       ??_R4bad_array_new_length@std@@6B@ 000000018005ec88     collisioncodegen_CollisionGeometry.obj
 0002:00000cb0       ??_R3bad_array_new_length@std@@8 000000018005ecb0     collisioncodegen_CollisionGeometry.obj
 0002:00000cc8       ??_R2bad_array_new_length@std@@8 000000018005ecc8     collisioncodegen_CollisionGeometry.obj
 0002:00000ce8       ??_R1A@?0A@EA@bad_array_new_length@std@@8 000000018005ece8     collisioncodegen_CollisionGeometry.obj
 0002:00000d10       ??_R4CollisionGeometry@shared_robotics@@6B@ 000000018005ed10     collisioncodegen_CollisionGeometry.obj
 0002:00000d38       ??_R3CollisionGeometry@shared_robotics@@8 000000018005ed38     collisioncodegen_CollisionGeometry.obj
 0002:00000d50       ??_R2CollisionGeometry@shared_robotics@@8 000000018005ed50     collisioncodegen_CollisionGeometry.obj
 0002:00000d60       ??_R1A@?0A@EA@CollisionGeometry@shared_robotics@@8 000000018005ed60     collisioncodegen_CollisionGeometry.obj
 0002:00000d88       ??_R4type_info@@6B@        000000018005ed88     MSVCRT:std_type_info_static.obj
 0002:00000db0       ??_R3type_info@@8          000000018005edb0     MSVCRT:std_type_info_static.obj
 0002:00000dc8       ??_R2type_info@@8          000000018005edc8     MSVCRT:std_type_info_static.obj
 0002:00000dd8       ??_R1A@?0A@EA@type_info@@8 000000018005edd8     MSVCRT:std_type_info_static.obj
 0002:00000dfc       __volatile_metadata        000000018005edfc     <linker-defined>
 0002:00001400       __rtc_iaa                  000000018005f400     MSVCRT:initsect.obj
 0002:00001408       __rtc_izz                  000000018005f408     MSVCRT:initsect.obj
 0002:00001410       __rtc_taa                  000000018005f410     MSVCRT:initsect.obj
 0002:00001418       __rtc_tzz                  000000018005f418     MSVCRT:initsect.obj
 0002:00003830       _TI3?AVbad_array_new_length@std@@ 0000000180061830     collisioncodegen_CollisionGeometry.obj
 0002:00003850       _CTA3?AVbad_array_new_length@std@@ 0000000180061850     collisioncodegen_CollisionGeometry.obj
 0002:00003870       _CT??_R0?AVbad_array_new_length@std@@@8??0bad_array_new_length@std@@QEAA@AEBV01@@Z24 0000000180061870     collisioncodegen_CollisionGeometry.obj
 0002:00003898       _CT??_R0?AVbad_alloc@std@@@8??0bad_alloc@std@@QEAA@AEBV01@@Z24 0000000180061898     collisioncodegen_CollisionGeometry.obj
 0002:000038c0       _CT??_R0?AVexception@std@@@8??0exception@std@@QEAA@AEBV01@@Z24 00000001800618c0     collisioncodegen_CollisionGeometry.obj
 0002:000038e8       _TI2?AVbad_alloc@std@@     00000001800618e8     MSVCRT:throw_bad_alloc.obj
 0002:00003908       _CTA2?AVbad_alloc@std@@    0000000180061908     MSVCRT:throw_bad_alloc.obj
 0002:00003bdc       __IMPORT_DESCRIPTOR_sf_runtime 0000000180061bdc     sf_runtime:sf_runtime.dll
 0002:00003bf0       __IMPORT_DESCRIPTOR_libmx  0000000180061bf0     libmx:libmx.dll
 0002:00003c04       __IMPORT_DESCRIPTOR_libmex 0000000180061c04     libmex:libmex.dll
 0002:00003c18       __IMPORT_DESCRIPTOR_libut  0000000180061c18     libut:libut.dll
 0002:00003c2c       __IMPORT_DESCRIPTOR_libmwmathutil 0000000180061c2c     libmwmathutil:libmwmathutil.dll
 0002:00003c40       __IMPORT_DESCRIPTOR_libemlrt 0000000180061c40     libemlrt:libemlrt.dll
 0002:00003c54       __IMPORT_DESCRIPTOR_libcovrt 0000000180061c54     libcovrt:libcovrt.dll
 0002:00003c68       __IMPORT_DESCRIPTOR_MSVCP140 0000000180061c68     msvcprt:MSVCP140.dll
 0002:00003c7c       __IMPORT_DESCRIPTOR_KERNEL32 0000000180061c7c     kernel32:KERNEL32.dll
 0002:00003c90       __IMPORT_DESCRIPTOR_VCRUNTIME140 0000000180061c90     vcruntime:VCRUNTIME140.dll
 0002:00003ca4       __IMPORT_DESCRIPTOR_VCRUNTIME140_1 0000000180061ca4     vcruntime:VCRUNTIME140_1.dll
 0002:00003cb8       __IMPORT_DESCRIPTOR_api-ms-win-crt-string-l1-1-0 0000000180061cb8     ucrt:api-ms-win-crt-string-l1-1-0.dll
 0002:00003ccc       __IMPORT_DESCRIPTOR_api-ms-win-crt-stdio-l1-1-0 0000000180061ccc     ucrt:api-ms-win-crt-stdio-l1-1-0.dll
 0002:00003ce0       __IMPORT_DESCRIPTOR_api-ms-win-crt-heap-l1-1-0 0000000180061ce0     ucrt:api-ms-win-crt-heap-l1-1-0.dll
 0002:00003cf4       __IMPORT_DESCRIPTOR_api-ms-win-crt-math-l1-1-0 0000000180061cf4     ucrt:api-ms-win-crt-math-l1-1-0.dll
 0002:00003d08       __IMPORT_DESCRIPTOR_api-ms-win-crt-utility-l1-1-0 0000000180061d08     ucrt:api-ms-win-crt-utility-l1-1-0.dll
 0002:00003d1c       __IMPORT_DESCRIPTOR_api-ms-win-crt-runtime-l1-1-0 0000000180061d1c     ucrt:api-ms-win-crt-runtime-l1-1-0.dll
 0002:00003d30       __NULL_IMPORT_DESCRIPTOR   0000000180061d30     sf_runtime:sf_runtime.dll
 0003:000114b0       DYNAMIC_DIMENSION          00000001800754b0     Modele_3D_sfun_registry.obj
 0003:00013ae0       ccd_vec3_origin            0000000180077ae0     ccd_vec3.obj
 0003:00013ae8       ccd_points_on_sphere       0000000180077ae8     ccd_vec3.obj
 0003:00013af0       ccd_points_on_sphere_len   0000000180077af0     ccd_vec3.obj
 0003:00013ef0       __security_cookie_complement 0000000180077ef0     MSVCRT:gs_cookie.obj
 0003:00013ef8       __security_cookie          0000000180077ef8     MSVCRT:gs_cookie.obj
 0003:00013f00       _fltused                   0000000180077f00     MSVCRT:fltused.obj
 0003:00013f10       __scrt_native_dllmain_reason 0000000180077f10     MSVCRT:utility.obj
 0003:00013f18       __isa_available            0000000180077f18     MSVCRT:cpu_disp.obj
 0003:00013f1c       __isa_enabled              0000000180077f1c     MSVCRT:cpu_disp.obj
 0003:00013f20       __memcpy_nt_iters          0000000180077f20     MSVCRT:cpu_disp.obj
 0003:00013f28       __memset_nt_iters          0000000180077f28     MSVCRT:cpu_disp.obj
 0003:00013f30       __scrt_ucrt_dll_is_in_use  0000000180077f30     MSVCRT:ucrt_stubs.obj
 0003:00013f38       ??_R0?AVbad_array_new_length@std@@@8 0000000180077f38     collisioncodegen_CollisionGeometry.obj
 0003:00013f68       ??_R0?AVbad_alloc@std@@@8  0000000180077f68     collisioncodegen_CollisionGeometry.obj
 0003:00013f90       ??_R0?AVexception@std@@@8  0000000180077f90     collisioncodegen_CollisionGeometry.obj
 0003:00013fb8       ??_R0?AVCollisionGeometry@shared_robotics@@@8 0000000180077fb8     collisioncodegen_CollisionGeometry.obj
 0003:00013ff0       ??_R0?AVtype_info@@@8      0000000180077ff0     MSVCRT:std_type_info_static.obj
 0003:00014d10       ?__type_info_root_node@@3U__type_info_node@@A 0000000180078d10     MSVCRT:tncleanup.obj
 0003:00014d20       ?_OptionsStorage@?1??__local_stdio_printf_options@@9@4_KA 0000000180078d20     MSVCRT:default_local_stdio_options.obj
 0003:00014d28       ?_OptionsStorage@?1??__local_stdio_scanf_options@@9@4_KA 0000000180078d28     MSVCRT:default_local_stdio_options.obj
 0003:00014d30       __scrt_current_native_startup_state 0000000180078d30     MSVCRT:utility.obj
 0003:00014d38       __scrt_native_startup_lock 0000000180078d38     MSVCRT:utility.obj
 0003:00014d78       __scrt_debugger_hook_flag  0000000180078d78     MSVCRT:utility_desktop.obj
 0003:00014d80       __castguard_check_failure_os_handled_fptr 0000000180078d80     MSVCRT:guard_support.obj
 0003:00014d88       __favor                    0000000180078d88     MSVCRT:cpu_disp.obj
 0003:00014d90       ?_OptionsStorage@?1??__local_stdio_printf_options@@9@9 0000000180078d90     <common>
 0003:00014d98       __dyn_tls_init_callback    0000000180078d98     <common>

 entry point at        0001:0005b020

 Static symbols

 0000:00000000       .debug$S                   0000000180000000     Modele_3D_sfun.exp
 0000:fff84000       _volmd                     0000000180000000     Modele_3D_sfun.obj
 0000:fff84000       _volmd                     0000000180000000     Modele_3D_sfun_registry.obj
 0000:fff84000       _volmd                     0000000180000000     c2_Modele_3D.obj
 0000:fff84000       _volmd                     0000000180000000     ccd_ccd.obj
 0000:fff84000       _volmd                     0000000180000000     ccd_mpr.obj
 0000:fff84000       _volmd                     0000000180000000     ccd_vec3.obj
 0000:fff84000       _volmd                     0000000180000000     collisioncodegen_CollisionGeometry.obj
 0000:fff84000       _volmd                     0000000180000000     collisioncodegen_CollisionGeometry.obj
 0000:fff84000       _volmd                     0000000180000000     collisioncodegen_CollisionGeometry.obj
 0000:fff84000       _volmd                     0000000180000000     collisioncodegen_CollisionGeometry.obj
 0000:fff84000       _volmd                     0000000180000000     collisioncodegen_CollisionGeometry.obj
 0000:fff84000       _volmd                     0000000180000000     collisioncodegen_CollisionGeometry.obj
 0002:fffa2000       $cppxdata$??$_Deallocate@$0BA@$0A@@std@@YAXPEAX_K@Z 0000000180000000     collisioncodegen_api.obj
 0002:fffa2000       $cppxdata$??$_Destroy_range@V?$allocator@V?$vector@_KV?$allocator@_K@std@@@std@@@std@@@std@@YAXPEAV?$vector@_KV?$allocator@_K@std@@@0@QEAV10@AEAV?$allocator@V?$vector@_KV?$allocator@_K@std@@@std@@@0@@Z 0000000180000000     collisioncodegen_api.obj
 0002:fffa2000       $cppxdata$??0exception@std@@QEAA@AEBV01@@Z 0000000180000000     collisioncodegen_api.obj
 0002:fffa2000       $cppxdata$??1exception@std@@UEAA@XZ 0000000180000000     collisioncodegen_api.obj
 0002:fffa2000       $cppxdata$?_Tidy@?$vector@U_ccd_vec3_t@@V?$allocator@U_ccd_vec3_t@@@std@@@std@@AEAAXXZ 0000000180000000     collisioncodegen_api.obj
 0002:fffa2000       $cppxdata$?_Tidy@?$vector@U_idx_vec3_t@shared_robotics@@V?$allocator@U_idx_vec3_t@shared_robotics@@@std@@@std@@AEAAXXZ 0000000180000000     collisioncodegen_api.obj
 0002:fffa2000       $cppxdata$?_Tidy@?$vector@V?$vector@_KV?$allocator@_K@std@@@std@@V?$allocator@V?$vector@_KV?$allocator@_K@std@@@std@@@2@@std@@AEAAXXZ 0000000180000000     collisioncodegen_api.obj
 0002:fffa2000       $cppxdata$?_Tidy@?$vector@_KV?$allocator@_K@std@@@std@@AEAAXXZ 0000000180000000     collisioncodegen_api.obj
 0002:fffa2000       $cppxdata$?length@?$_Narrow_char_traits@DH@std@@SA_KQEBD@Z 0000000180000000     collisioncodegen_api.obj
 0002:fffa2000       $ip2state$??$_Deallocate@$0BA@$0A@@std@@YAXPEAX_K@Z 0000000180000000     collisioncodegen_api.obj
 0002:fffa2000       $ip2state$??$_Destroy_range@V?$allocator@V?$vector@_KV?$allocator@_K@std@@@std@@@std@@@std@@YAXPEAV?$vector@_KV?$allocator@_K@std@@@0@QEAV10@AEAV?$allocator@V?$vector@_KV?$allocator@_K@std@@@std@@@0@@Z 0000000180000000     collisioncodegen_api.obj
 0002:fffa2000       $ip2state$??0exception@std@@QEAA@AEBV01@@Z 0000000180000000     collisioncodegen_api.obj
 0002:fffa2000       $ip2state$??1exception@std@@UEAA@XZ 0000000180000000     collisioncodegen_api.obj
 0002:fffa2000       $ip2state$?_Tidy@?$vector@U_ccd_vec3_t@@V?$allocator@U_ccd_vec3_t@@@std@@@std@@AEAAXXZ 0000000180000000     collisioncodegen_api.obj
 0002:fffa2000       $ip2state$?_Tidy@?$vector@U_idx_vec3_t@shared_robotics@@V?$allocator@U_idx_vec3_t@shared_robotics@@@std@@@std@@AEAAXXZ 0000000180000000     collisioncodegen_api.obj
 0002:fffa2000       $ip2state$?_Tidy@?$vector@V?$vector@_KV?$allocator@_K@std@@@std@@V?$allocator@V?$vector@_KV?$allocator@_K@std@@@std@@@2@@std@@AEAAXXZ 0000000180000000     collisioncodegen_api.obj
 0002:fffa2000       $ip2state$?_Tidy@?$vector@_KV?$allocator@_K@std@@@std@@AEAAXXZ 0000000180000000     collisioncodegen_api.obj
 0002:fffa2000       $ip2state$?length@?$_Narrow_char_traits@DH@std@@SA_KQEBD@Z 0000000180000000     collisioncodegen_api.obj
 0002:fffa2000       $unwind$??$_Allocate@$0BA@U_Default_allocate_traits@std@@$0A@@std@@YAPEAX_K@Z 0000000180000000     collisioncodegen_api.obj
 0002:fffa2000       $unwind$??$_Allocate_manually_vector_aligned@U_Default_allocate_traits@std@@@std@@YAPEAX_K@Z 0000000180000000     collisioncodegen_api.obj
 0002:fffa2000       $unwind$??$_Copy_memmove@PEA_KPEA_K@std@@YAPEA_KPEA_K00@Z 0000000180000000     collisioncodegen_api.obj
 0002:fffa2000       $unwind$??$_Deallocate@$0BA@$0A@@std@@YAXPEAX_K@Z 0000000180000000     collisioncodegen_api.obj
 0002:fffa2000       $unwind$??$_Destroy_range@V?$allocator@V?$vector@_KV?$allocator@_K@std@@@std@@@std@@@std@@YAXPEAV?$vector@_KV?$allocator@_K@std@@@0@QEAV10@AEAV?$allocator@V?$vector@_KV?$allocator@_K@std@@@std@@@0@@Z 0000000180000000     collisioncodegen_api.obj
 0002:fffa2000       $unwind$??$_Get_size_of_n@$07@std@@YA_K_K@Z 0000000180000000     collisioncodegen_api.obj
 0002:fffa2000       $unwind$??$_Get_size_of_n@$0BI@@std@@YA_K_K@Z 0000000180000000     collisioncodegen_api.obj
 0002:fffa2000       $unwind$??$destroy@V?$vector@_KV?$allocator@_K@std@@@std@@@?$_Default_allocator_traits@V?$allocator@V?$vector@_KV?$allocator@_K@std@@@std@@@std@@@std@@SAXAEAV?$allocator@V?$vector@_KV?$allocator@_K@std@@@std@@@1@QEAV?$vector@_KV?$allocator@_K@std@@@1@@Z 0000000180000000     collisioncodegen_api.obj
 0002:fffa2000       $unwind$??$min@_K@std@@YAAEB_KAEB_K0@Z 0000000180000000     collisioncodegen_api.obj
 0002:fffa2000       $unwind$??0bad_alloc@std@@AEAA@QEBD@Z 0000000180000000     collisioncodegen_api.obj
 0002:fffa2000       $unwind$??0bad_alloc@std@@QEAA@AEBV01@@Z 0000000180000000     collisioncodegen_api.obj
 0002:fffa2000       $unwind$??0bad_array_new_length@std@@QEAA@AEBV01@@Z 0000000180000000     collisioncodegen_api.obj
 0002:fffa2000       $unwind$??0bad_array_new_length@std@@QEAA@XZ 0000000180000000     collisioncodegen_api.obj
 0002:fffa2000       $unwind$??0exception@std@@QEAA@AEBV01@@Z 0000000180000000     collisioncodegen_api.obj
 0002:fffa2000       $unwind$??0exception@std@@QEAA@QEBDH@Z 0000000180000000     collisioncodegen_api.obj
 0002:fffa2000       $unwind$??1?$_Uninitialized_backout_al@V?$allocator@V?$vector@_KV?$allocator@_K@std@@@std@@@std@@@std@@QEAA@XZ 0000000180000000     collisioncodegen_api.obj
 0002:fffa2000       $unwind$??1?$_Uninitialized_backout_al@V?$allocator@_K@std@@@std@@QEAA@XZ 0000000180000000     collisioncodegen_api.obj
 0002:fffa2000       $unwind$??1?$vector@U_ccd_vec3_t@@V?$allocator@U_ccd_vec3_t@@@std@@@std@@QEAA@XZ 0000000180000000     collisioncodegen_api.obj
 0002:fffa2000       $unwind$??1?$vector@U_idx_vec3_t@shared_robotics@@V?$allocator@U_idx_vec3_t@shared_robotics@@@std@@@std@@QEAA@XZ 0000000180000000     collisioncodegen_api.obj
 0002:fffa2000       $unwind$??1?$vector@V?$vector@_KV?$allocator@_K@std@@@std@@V?$allocator@V?$vector@_KV?$allocator@_K@std@@@std@@@2@@std@@QEAA@XZ 0000000180000000     collisioncodegen_api.obj
 0002:fffa2000       $unwind$??1?$vector@_KV?$allocator@_K@std@@@std@@QEAA@XZ 0000000180000000     collisioncodegen_api.obj
 0002:fffa2000       $unwind$??1bad_alloc@std@@UEAA@XZ 0000000180000000     collisioncodegen_api.obj
 0002:fffa2000       $unwind$??1bad_array_new_length@std@@UEAA@XZ 0000000180000000     collisioncodegen_api.obj
 0002:fffa2000       $unwind$??1exception@std@@UEAA@XZ 0000000180000000     collisioncodegen_api.obj
 0002:fffa2000       $unwind$??_G?$vector@_KV?$allocator@_K@std@@@std@@QEAAPEAXI@Z 0000000180000000     collisioncodegen_api.obj
 0002:fffa2000       $unwind$??_GCollisionGeometry@shared_robotics@@UEAAPEAXI@Z 0000000180000000     collisioncodegen_api.obj
 0002:fffa2000       $unwind$??_Gbad_alloc@std@@UEAAPEAXI@Z 0000000180000000     collisioncodegen_api.obj
 0002:fffa2000       $unwind$??_Gbad_array_new_length@std@@UEAAPEAXI@Z 0000000180000000     collisioncodegen_api.obj
 0002:fffa2000       $unwind$??_Gexception@std@@UEAAPEAXI@Z 0000000180000000     collisioncodegen_api.obj
 0002:fffa2000       $unwind$?_Adjust_manually_vector_aligned@std@@YAXAEAPEAXAEA_K@Z 0000000180000000     collisioncodegen_api.obj
 0002:fffa2000       $unwind$?_Allocate@_Default_allocate_traits@std@@SAPEAX_K@Z 0000000180000000     collisioncodegen_api.obj
 0002:fffa2000       $unwind$?_Destroy@?$vector@U_ccd_vec3_t@@V?$allocator@U_ccd_vec3_t@@@std@@@std@@AEAAXPEAU_ccd_vec3_t@@0@Z 0000000180000000     collisioncodegen_api.obj
 0002:fffa2000       $unwind$?_Destroy@?$vector@U_idx_vec3_t@shared_robotics@@V?$allocator@U_idx_vec3_t@shared_robotics@@@std@@@std@@AEAAXPEAU_idx_vec3_t@shared_robotics@@0@Z 0000000180000000     collisioncodegen_api.obj
 0002:fffa2000       $unwind$?_Destroy@?$vector@V?$vector@_KV?$allocator@_K@std@@@std@@V?$allocator@V?$vector@_KV?$allocator@_K@std@@@std@@@2@@std@@AEAAXPEAV?$vector@_KV?$allocator@_K@std@@@2@0@Z 0000000180000000     collisioncodegen_api.obj
 0002:fffa2000       $unwind$?_Destroy@?$vector@_KV?$allocator@_K@std@@@std@@AEAAXPEA_K0@Z 0000000180000000     collisioncodegen_api.obj
 0002:fffa2000       $unwind$?_Getal@?$vector@U_ccd_vec3_t@@V?$allocator@U_ccd_vec3_t@@@std@@@std@@AEAAAEAV?$allocator@U_ccd_vec3_t@@@2@XZ 0000000180000000     collisioncodegen_api.obj
 0002:fffa2000       $unwind$?_Getal@?$vector@U_idx_vec3_t@shared_robotics@@V?$allocator@U_idx_vec3_t@shared_robotics@@@std@@@std@@AEAAAEAV?$allocator@U_idx_vec3_t@shared_robotics@@@2@XZ 0000000180000000     collisioncodegen_api.obj
 0002:fffa2000       $unwind$?_Getal@?$vector@V?$vector@_KV?$allocator@_K@std@@@std@@V?$allocator@V?$vector@_KV?$allocator@_K@std@@@std@@@2@@std@@AEAAAEAV?$allocator@V?$vector@_KV?$allocator@_K@std@@@std@@@2@XZ 0000000180000000     collisioncodegen_api.obj
 0002:fffa2000       $unwind$?_Getal@?$vector@V?$vector@_KV?$allocator@_K@std@@@std@@V?$allocator@V?$vector@_KV?$allocator@_K@std@@@std@@@2@@std@@AEBAAEBV?$allocator@V?$vector@_KV?$allocator@_K@std@@@std@@@2@XZ 0000000180000000     collisioncodegen_api.obj
 0002:fffa2000       $unwind$?_Getal@?$vector@_KV?$allocator@_K@std@@@std@@AEAAAEAV?$allocator@_K@2@XZ 0000000180000000     collisioncodegen_api.obj
 0002:fffa2000       $unwind$?_Getal@?$vector@_KV?$allocator@_K@std@@@std@@AEBAAEBV?$allocator@_K@2@XZ 0000000180000000     collisioncodegen_api.obj
 0002:fffa2000       $unwind$?_Throw_bad_array_new_length@std@@YAXXZ 0000000180000000     collisioncodegen_api.obj
 0002:fffa2000       $unwind$?_Tidy@?$vector@U_ccd_vec3_t@@V?$allocator@U_ccd_vec3_t@@@std@@@std@@AEAAXXZ 0000000180000000     collisioncodegen_api.obj
 0002:fffa2000       $unwind$?_Tidy@?$vector@U_idx_vec3_t@shared_robotics@@V?$allocator@U_idx_vec3_t@shared_robotics@@@std@@@std@@AEAAXXZ 0000000180000000     collisioncodegen_api.obj
 0002:fffa2000       $unwind$?_Tidy@?$vector@V?$vector@_KV?$allocator@_K@std@@@std@@V?$allocator@V?$vector@_KV?$allocator@_K@std@@@std@@@2@@std@@AEAAXXZ 0000000180000000     collisioncodegen_api.obj
 0002:fffa2000       $unwind$?_Tidy@?$vector@_KV?$allocator@_K@std@@@std@@AEAAXXZ 0000000180000000     collisioncodegen_api.obj
 0002:fffa2000       $unwind$?allocate@?$allocator@V?$vector@_KV?$allocator@_K@std@@@std@@@std@@QEAAPEAV?$vector@_KV?$allocator@_K@std@@@2@_K@Z 0000000180000000     collisioncodegen_api.obj
 0002:fffa2000       $unwind$?allocate@?$allocator@_K@std@@QEAAPEA_K_K@Z 0000000180000000     collisioncodegen_api.obj
 0002:fffa2000       $unwind$?deallocate@?$allocator@U_ccd_vec3_t@@@std@@QEAAXQEAU_ccd_vec3_t@@_K@Z 0000000180000000     collisioncodegen_api.obj
 0002:fffa2000       $unwind$?deallocate@?$allocator@U_idx_vec3_t@shared_robotics@@@std@@QEAAXQEAU_idx_vec3_t@shared_robotics@@_K@Z 0000000180000000     collisioncodegen_api.obj
 0002:fffa2000       $unwind$?deallocate@?$allocator@V?$vector@_KV?$allocator@_K@std@@@std@@@std@@QEAAXQEAV?$vector@_KV?$allocator@_K@std@@@2@_K@Z 0000000180000000     collisioncodegen_api.obj
 0002:fffa2000       $unwind$?deallocate@?$allocator@_K@std@@QEAAXQEA_K_K@Z 0000000180000000     collisioncodegen_api.obj
 0002:fffa2000       $unwind$?length@?$_Narrow_char_traits@DH@std@@SA_KQEBD@Z 0000000180000000     collisioncodegen_api.obj
 0002:fffa2000       $unwind$?what@exception@std@@UEBAPEBDXZ 0000000180000000     collisioncodegen_api.obj
 0000:fff84000       _volmd                     0000000180000000     collisioncodegen_api.obj
 0000:fff84000       _volmd                     0000000180000000     collisioncodegen_api.obj
 0000:fff84000       _volmd                     0000000180000000     collisioncodegen_api.obj
 0000:fff84000       _volmd                     0000000180000000     collisioncodegen_ccdExtensions.obj
 0000:fff84000       _volmd                     0000000180000000     collisioncodegen_checkCollision.obj
 0000:fff84000       _volmd                     0000000180000000     MSVCRT:cpu_disp.obj
 0002:fffa2000       __guard_ehcont_?dllmain_dispatch@@YAHQEAUHINSTANCE__@@KQEAX@Z 0000000180000000     MSVCRT:dll_dllmain.obj
 0002:fffa2000       __guard_fids_?dllmain_dispatch@@YAHQEAUHINSTANCE__@@KQEAX@Z 0000000180000000     MSVCRT:dll_dllmain.obj
 0000:fff84000       _volmd                     0000000180000000     MSVCRT:gs_report.obj
 0000:fff84000       _volmd                     0000000180000000     MSVCRT:gs_report.obj
 0000:fff84000       _volmd                     0000000180000000     MSVCRT:gs_report.obj
 0002:fffa2000       __guard_fids__             0000000180000000     MSVCRT:guard_support.obj
 0002:fffa2000       __guard_fids__             0000000180000000     MSVCRT:guard_support.obj
 0002:fffa2000       __guard_fids__guard_icall_checks_enforced 0000000180000000     MSVCRT:guard_support.obj
 0000:fff84000       _volmd                     0000000180000000     MSVCRT:guard_support.obj
 0000:fff84000       _volmd                     0000000180000000     MSVCRT:guard_support.obj
 0000:fff84000       _volmd                     0000000180000000     MSVCRT:guard_support.obj
 0000:fff84000       _volmd                     0000000180000000     MSVCRT:guard_support.obj
 0000:fff84000       _volmd                     0000000180000000     MSVCRT:guard_support.obj
 0002:fffa2000       __guard_fids__             0000000180000000     MSVCRT:std_type_info_static.obj
 0002:fffa2000       $unwind$??0bad_alloc@std@@QEAA@AEBV01@@Z 0000000180000000     MSVCRT:throw_bad_alloc.obj
 0002:fffa2000       $unwind$??0bad_array_new_length@std@@QEAA@AEBV01@@Z 0000000180000000     MSVCRT:throw_bad_alloc.obj
 0002:fffa2000       $unwind$??0exception@std@@QEAA@AEBV01@@Z 0000000180000000     MSVCRT:throw_bad_alloc.obj
 0002:fffa2000       $unwind$??_Gbad_alloc@std@@UEAAPEAXI@Z 0000000180000000     MSVCRT:throw_bad_alloc.obj
 0002:fffa2000       $unwind$??_Gbad_array_new_length@std@@UEAAPEAXI@Z 0000000180000000     MSVCRT:throw_bad_alloc.obj
 0002:fffa2000       $unwind$??_Gexception@std@@UEAAPEAXI@Z 0000000180000000     MSVCRT:throw_bad_alloc.obj
 0002:fffa2000       __guard_fids__             0000000180000000     MSVCRT:throw_bad_alloc.obj
 0002:fffa2000       __guard_fids__             0000000180000000     MSVCRT:throw_bad_alloc.obj
 0002:fffa2000       __guard_fids__             0000000180000000     MSVCRT:throw_bad_alloc.obj
 0002:fffa2000       __guard_ehcont___scrt_is_nonwritable_in_current_image 0000000180000000     MSVCRT:utility.obj
 0000:fff84000       _volmd                     0000000180000000     MSVCRT:utility.obj
 0000:fff84000       _volmd                     0000000180000000     MSVCRT:utility.obj
 0000:fff84000       _volmd                     0000000180000000     MSVCRT:utility.obj
 0002:fffa2000       __guard_fids___scrt_set_unhandled_exception_filter 0000000180000000     MSVCRT:utility_desktop.obj
 0000:fff84000       _volmd                     0000000180000000     MSVCRT:utility_desktop.obj
 0000:00000000       .debug$S                   0000000180000000     msvcprt:MSVCP140.dll
 0000:00000000       .debug$S                   0000000180000000     msvcprt:MSVCP140.dll
 0000:00000000       .debug$S                   0000000180000000     msvcprt:MSVCP140.dll
 0000:00000000       .debug$S                   0000000180000000     msvcprt:MSVCP140.dll
 0000:00000000       .debug$S                   0000000180000000     msvcprt:MSVCP140.dll
 0000:00000000       .debug$S                   0000000180000000     msvcprt:MSVCP140.dll
 0000:00000000       .debug$S                   0000000180000000     msvcprt:MSVCP140.dll
 0000:00000000       .debug$S                   0000000180000000     msvcprt:MSVCP140.dll
 0000:00000000       .debug$S                   0000000180000000     msvcprt:MSVCP140.dll
 0000:00000000       .debug$S                   0000000180000000     msvcprt:MSVCP140.dll
 0000:00000000       .debug$S                   0000000180000000     msvcprt:MSVCP140.dll
 0000:00000000       .debug$S                   0000000180000000     msvcprt:MSVCP140.dll
 0000:00000000       .debug$S                   0000000180000000     msvcprt:MSVCP140.dll
 0000:00000000       .debug$S                   0000000180000000     msvcprt:MSVCP140.dll
 0000:00000000       .debug$S                   0000000180000000     msvcprt:MSVCP140.dll
 0000:00000000       .debug$S                   0000000180000000     msvcprt:MSVCP140.dll
 0000:00000000       .debug$S                   0000000180000000     msvcprt:MSVCP140.dll
 0000:00000000       .debug$S                   0000000180000000     msvcprt:MSVCP140.dll
 0000:00000000       .debug$S                   0000000180000000     vcruntime:VCRUNTIME140.dll
 0000:00000000       .debug$S                   0000000180000000     vcruntime:VCRUNTIME140.dll
 0000:00000000       .debug$S                   0000000180000000     vcruntime:VCRUNTIME140.dll
 0000:00000000       .debug$S                   0000000180000000     vcruntime:VCRUNTIME140.dll
 0000:00000000       .debug$S                   0000000180000000     vcruntime:VCRUNTIME140.dll
 0000:00000000       .debug$S                   0000000180000000     vcruntime:VCRUNTIME140.dll
 0000:00000000       .debug$S                   0000000180000000     vcruntime:VCRUNTIME140.dll
 0000:00000000       .debug$S                   0000000180000000     vcruntime:VCRUNTIME140.dll
 0000:00000000       .debug$S                   0000000180000000     vcruntime:VCRUNTIME140.dll
 0000:00000000       .debug$S                   0000000180000000     vcruntime:VCRUNTIME140.dll
 0000:00000000       .debug$S                   0000000180000000     vcruntime:VCRUNTIME140_1.dll
 0000:00000000       .debug$S                   0000000180000000     ucrt:api-ms-win-crt-heap-l1-1-0.dll
 0000:00000000       .debug$S                   0000000180000000     ucrt:api-ms-win-crt-heap-l1-1-0.dll
 0000:00000000       .debug$S                   0000000180000000     ucrt:api-ms-win-crt-heap-l1-1-0.dll
 0000:00000000       .debug$S                   0000000180000000     ucrt:api-ms-win-crt-heap-l1-1-0.dll
 0000:00000000       .debug$S                   0000000180000000     ucrt:api-ms-win-crt-math-l1-1-0.dll
 0000:00000000       .debug$S                   0000000180000000     ucrt:api-ms-win-crt-math-l1-1-0.dll
 0000:00000000       .debug$S                   0000000180000000     ucrt:api-ms-win-crt-math-l1-1-0.dll
 0000:00000000       .debug$S                   0000000180000000     ucrt:api-ms-win-crt-runtime-l1-1-0.dll
 0000:00000000       .debug$S                   0000000180000000     ucrt:api-ms-win-crt-runtime-l1-1-0.dll
 0000:00000000       .debug$S                   0000000180000000     ucrt:api-ms-win-crt-runtime-l1-1-0.dll
 0000:00000000       .debug$S                   0000000180000000     ucrt:api-ms-win-crt-runtime-l1-1-0.dll
 0000:00000000       .debug$S                   0000000180000000     ucrt:api-ms-win-crt-runtime-l1-1-0.dll
 0000:00000000       .debug$S                   0000000180000000     ucrt:api-ms-win-crt-runtime-l1-1-0.dll
 0000:00000000       .debug$S                   0000000180000000     ucrt:api-ms-win-crt-runtime-l1-1-0.dll
 0000:00000000       .debug$S                   0000000180000000     ucrt:api-ms-win-crt-runtime-l1-1-0.dll
 0000:00000000       .debug$S                   0000000180000000     ucrt:api-ms-win-crt-runtime-l1-1-0.dll
 0000:00000000       .debug$S                   0000000180000000     ucrt:api-ms-win-crt-runtime-l1-1-0.dll
 0000:00000000       .debug$S                   0000000180000000     ucrt:api-ms-win-crt-runtime-l1-1-0.dll
 0000:00000000       .debug$S                   0000000180000000     ucrt:api-ms-win-crt-runtime-l1-1-0.dll
 0000:00000000       .debug$S                   0000000180000000     ucrt:api-ms-win-crt-runtime-l1-1-0.dll
 0000:00000000       .debug$S                   0000000180000000     ucrt:api-ms-win-crt-stdio-l1-1-0.dll
 0000:00000000       .debug$S                   0000000180000000     ucrt:api-ms-win-crt-stdio-l1-1-0.dll
 0000:00000000       .debug$S                   0000000180000000     ucrt:api-ms-win-crt-stdio-l1-1-0.dll
 0000:00000000       .debug$S                   0000000180000000     ucrt:api-ms-win-crt-stdio-l1-1-0.dll
 0000:00000000       .debug$S                   0000000180000000     ucrt:api-ms-win-crt-string-l1-1-0.dll
 0000:00000000       .debug$S                   0000000180000000     ucrt:api-ms-win-crt-string-l1-1-0.dll
 0000:00000000       .debug$S                   0000000180000000     ucrt:api-ms-win-crt-string-l1-1-0.dll
 0000:00000000       .debug$S                   0000000180000000     ucrt:api-ms-win-crt-string-l1-1-0.dll
 0000:00000000       .debug$S                   0000000180000000     ucrt:api-ms-win-crt-utility-l1-1-0.dll
 0000:00000000       .debug$S                   0000000180000000     kernel32:KERNEL32.dll
 0000:00000000       .debug$S                   0000000180000000     kernel32:KERNEL32.dll
 0000:00000000       .debug$S                   0000000180000000     kernel32:KERNEL32.dll
 0000:00000000       .debug$S                   0000000180000000     kernel32:KERNEL32.dll
 0000:00000000       .debug$S                   0000000180000000     kernel32:KERNEL32.dll
 0000:00000000       .debug$S                   0000000180000000     kernel32:KERNEL32.dll
 0000:00000000       .debug$S                   0000000180000000     kernel32:KERNEL32.dll
 0000:00000000       .debug$S                   0000000180000000     kernel32:KERNEL32.dll
 0000:00000000       .debug$S                   0000000180000000     kernel32:KERNEL32.dll
 0000:00000000       .debug$S                   0000000180000000     kernel32:KERNEL32.dll
 0000:00000000       .debug$S                   0000000180000000     kernel32:KERNEL32.dll
 0000:00000000       .debug$S                   0000000180000000     kernel32:KERNEL32.dll
 0000:00000000       .debug$S                   0000000180000000     kernel32:KERNEL32.dll
 0000:00000000       .debug$S                   0000000180000000     kernel32:KERNEL32.dll
 0000:00000000       .debug$S                   0000000180000000     kernel32:KERNEL32.dll
 0000:00000000       .debug$S                   0000000180000000     kernel32:KERNEL32.dll
 0000:00000000       .debug$S                   0000000180000000     kernel32:KERNEL32.dll
 0000:00000000       .debug$S                   0000000180000000     libcovrt:libcovrt.dll
 0000:00000000       .debug$S                   0000000180000000     libcovrt:libcovrt.dll
 0000:00000000       .debug$S                   0000000180000000     libcovrt:libcovrt.dll
 0000:00000000       .debug$S                   0000000180000000     libcovrt:libcovrt.dll
 0000:00000000       .debug$S                   0000000180000000     libcovrt:libcovrt.dll
 0000:00000000       .debug$S                   0000000180000000     libcovrt:libcovrt.dll
 0000:00000000       .debug$S                   0000000180000000     libcovrt:libcovrt.dll
 0000:00000000       .debug$S                   0000000180000000     libcovrt:libcovrt.dll
 0000:00000000       .debug$S                   0000000180000000     libcovrt:libcovrt.dll
 0000:00000000       .debug$S                   0000000180000000     libemlrt:libemlrt.dll
 0000:00000000       .debug$S                   0000000180000000     libemlrt:libemlrt.dll
 0000:00000000       .debug$S                   0000000180000000     libemlrt:libemlrt.dll
 0000:00000000       .debug$S                   0000000180000000     libemlrt:libemlrt.dll
 0000:00000000       .debug$S                   0000000180000000     libemlrt:libemlrt.dll
 0000:00000000       .debug$S                   0000000180000000     libemlrt:libemlrt.dll
 0000:00000000       .debug$S                   0000000180000000     libemlrt:libemlrt.dll
 0000:00000000       .debug$S                   0000000180000000     libemlrt:libemlrt.dll
 0000:00000000       .debug$S                   0000000180000000     libemlrt:libemlrt.dll
 0000:00000000       .debug$S                   0000000180000000     libemlrt:libemlrt.dll
 0000:00000000       .debug$S                   0000000180000000     libemlrt:libemlrt.dll
 0000:00000000       .debug$S                   0000000180000000     libemlrt:libemlrt.dll
 0000:00000000       .debug$S                   0000000180000000     libemlrt:libemlrt.dll
 0000:00000000       .debug$S                   0000000180000000     libemlrt:libemlrt.dll
 0000:00000000       .debug$S                   0000000180000000     libemlrt:libemlrt.dll
 0000:00000000       .debug$S                   0000000180000000     libemlrt:libemlrt.dll
 0000:00000000       .debug$S                   0000000180000000     libmex:libmex.dll
 0000:00000000       .debug$S                   0000000180000000     libmex:libmex.dll
 0000:00000000       .debug$S                   0000000180000000     libmex:libmex.dll
 0000:00000000       .debug$S                   0000000180000000     libmex:libmex.dll
 0000:00000000       .debug$S                   0000000180000000     libmex:libmex.dll
 0000:00000000       .debug$S                   0000000180000000     libmex:libmex.dll
 0000:00000000       .debug$S                   0000000180000000     libmex:libmex.dll
 0000:00000000       .debug$S                   0000000180000000     libmwmathutil:libmwmathutil.dll
 0000:00000000       .debug$S                   0000000180000000     libmwmathutil:libmwmathutil.dll
 0000:00000000       .debug$S                   0000000180000000     libmwmathutil:libmwmathutil.dll
 0000:00000000       .debug$S                   0000000180000000     libmwmathutil:libmwmathutil.dll
 0000:00000000       .debug$S                   0000000180000000     libmwmathutil:libmwmathutil.dll
 0000:00000000       .debug$S                   0000000180000000     libmwmathutil:libmwmathutil.dll
 0000:00000000       .debug$S                   0000000180000000     libmwmathutil:libmwmathutil.dll
 0000:00000000       .debug$S                   0000000180000000     libmwmathutil:libmwmathutil.dll
 0000:00000000       .debug$S                   0000000180000000     libmx:libmx.dll
 0000:00000000       .debug$S                   0000000180000000     libmx:libmx.dll
 0000:00000000       .debug$S                   0000000180000000     libmx:libmx.dll
 0000:00000000       .debug$S                   0000000180000000     libmx:libmx.dll
 0000:00000000       .debug$S                   0000000180000000     libmx:libmx.dll
 0000:00000000       .debug$S                   0000000180000000     libmx:libmx.dll
 0000:00000000       .debug$S                   0000000180000000     libmx:libmx.dll
 0000:00000000       .debug$S                   0000000180000000     libmx:libmx.dll
 0000:00000000       .debug$S                   0000000180000000     libmx:libmx.dll
 0000:00000000       .debug$S                   0000000180000000     libmx:libmx.dll
 0000:00000000       .debug$S                   0000000180000000     libmx:libmx.dll
 0000:00000000       .debug$S                   0000000180000000     libmx:libmx.dll
 0000:00000000       .debug$S                   0000000180000000     libmx:libmx.dll
 0000:00000000       .debug$S                   0000000180000000     libmx:libmx.dll
 0000:00000000       .debug$S                   0000000180000000     libmx:libmx.dll
 0000:00000000       .debug$S                   0000000180000000     libmx:libmx.dll
 0000:00000000       .debug$S                   0000000180000000     libmx:libmx.dll
 0000:00000000       .debug$S                   0000000180000000     libmx:libmx.dll
 0000:00000000       .debug$S                   0000000180000000     libmx:libmx.dll
 0000:00000000       .debug$S                   0000000180000000     libmx:libmx.dll
 0000:00000000       .debug$S                   0000000180000000     libmx:libmx.dll
 0000:00000000       .debug$S                   0000000180000000     libut:libut.dll
 0000:00000000       .debug$S                   0000000180000000     libut:libut.dll
 0000:00000000       .debug$S                   0000000180000000     sf_runtime:sf_runtime.dll
 0000:00000000       .debug$S                   0000000180000000     sf_runtime:sf_runtime.dll
 0000:00000000       .debug$S                   0000000180000000     sf_runtime:sf_runtime.dll
 0000:00000000       .debug$S                   0000000180000000     sf_runtime:sf_runtime.dll
 0000:00000000       .debug$S                   0000000180000000     sf_runtime:sf_runtime.dll
 0000:00000000       .debug$S                   0000000180000000     sf_runtime:sf_runtime.dll
 0000:00000000       .debug$S                   0000000180000000     sf_runtime:sf_runtime.dll
 0000:00000000       .debug$S                   0000000180000000     sf_runtime:sf_runtime.dll
 0000:00000000       .debug$S                   0000000180000000     sf_runtime:sf_runtime.dll
 0000:00000000       .debug$S                   0000000180000000     sf_runtime:sf_runtime.dll
 0000:00000000       .debug$S                   0000000180000000     sf_runtime:sf_runtime.dll
 0000:00000000       .debug$S                   0000000180000000     sf_runtime:sf_runtime.dll
 0000:00000000       .debug$S                   0000000180000000     sf_runtime:sf_runtime.dll
 0000:00000000       .debug$S                   0000000180000000     sf_runtime:sf_runtime.dll
 0000:00000000       .debug$S                   0000000180000000     sf_runtime:sf_runtime.dll
 0000:00000000       .debug$S                   0000000180000000     sf_runtime:sf_runtime.dll
 0000:00000000       .debug$S                   0000000180000000     sf_runtime:sf_runtime.dll
 0000:00000000       .debug$S                   0000000180000000     sf_runtime:sf_runtime.dll
 0000:00000000       .debug$S                   0000000180000000     sf_runtime:sf_runtime.dll
 0000:00000000       .debug$S                   0000000180000000     sf_runtime:sf_runtime.dll
 0000:00000000       .debug$S                   0000000180000000     sf_runtime:sf_runtime.dll
 0000:00000000       .debug$S                   0000000180000000     sf_runtime:sf_runtime.dll
 0000:00000000       .debug$S                   0000000180000000     sf_runtime:sf_runtime.dll
 0000:00000000       .debug$S                   0000000180000000     sf_runtime:sf_runtime.dll
 0000:00000000       .debug$S                   0000000180000000     sf_runtime:sf_runtime.dll
 0000:00000000       .debug$S                   0000000180000000     sf_runtime:sf_runtime.dll
 0000:00000000       .debug$S                   0000000180000000     sf_runtime:sf_runtime.dll
 0000:00000000       .debug$S                   0000000180000000     sf_runtime:sf_runtime.dll
 0000:00000000       .debug$S                   0000000180000000     sf_runtime:sf_runtime.dll
 0000:00000000       .debug$S                   0000000180000000     sf_runtime:sf_runtime.dll
 0000:00000000       .debug$S                   0000000180000000     sf_runtime:sf_runtime.dll
 0000:00000000       .debug$S                   0000000180000000     sf_runtime:sf_runtime.dll
 0000:00000000       .debug$S                   0000000180000000     sf_runtime:sf_runtime.dll
 0000:00000000       .debug$S                   0000000180000000     sf_runtime:sf_runtime.dll
 0000:00000000       .debug$S                   0000000180000000     sf_runtime:sf_runtime.dll
 0000:00000000       .debug$S                   0000000180000000     sf_runtime:sf_runtime.dll
 0000:00000000       .debug$S                   0000000180000000     sf_runtime:sf_runtime.dll
 0000:fff84010       _volmd                     0000000180000010     Modele_3D_sfun.obj
 0000:fff84010       _volmd                     0000000180000010     Modele_3D_sfun_registry.obj
 0000:fff84010       _volmd                     0000000180000010     c2_Modele_3D.obj
 0000:fff84010       _volmd                     0000000180000010     ccd_ccd.obj
 0000:fff84010       _volmd                     0000000180000010     ccd_mpr.obj
 0000:fff84010       _volmd                     0000000180000010     ccd_vec3.obj
 0000:fff84010       _volmd                     0000000180000010     collisioncodegen_ccdExtensions.obj
 0000:fff84020       _volmd                     0000000180000020     Modele_3D_sfun.obj
 0000:fff84020       _volmd                     0000000180000020     Modele_3D_sfun_registry.obj
 0000:fff84020       _volmd                     0000000180000020     c2_Modele_3D.obj
 0000:fff84020       _volmd                     0000000180000020     ccd_ccd.obj
 0000:fff84020       _volmd                     0000000180000020     ccd_mpr.obj
 0000:fff84020       _volmd                     0000000180000020     ccd_vec3.obj
 0000:fff84020       _volmd                     0000000180000020     collisioncodegen_ccdExtensions.obj
 0000:fff84030       _volmd                     0000000180000030     Modele_3D_sfun.obj
 0000:fff84030       _volmd                     0000000180000030     Modele_3D_sfun_registry.obj
 0000:fff84030       _volmd                     0000000180000030     c2_Modele_3D.obj
 0000:fff84030       _volmd                     0000000180000030     ccd_ccd.obj
 0000:fff84030       _volmd                     0000000180000030     ccd_mpr.obj
 0000:fff84030       _volmd                     0000000180000030     collisioncodegen_ccdExtensions.obj
 0000:fff84040       _volmd                     0000000180000040     Modele_3D_sfun.obj
 0000:fff84040       _volmd                     0000000180000040     Modele_3D_sfun_registry.obj
 0000:fff84040       _volmd                     0000000180000040     c2_Modele_3D.obj
 0000:fff84040       _volmd                     0000000180000040     ccd_ccd.obj
 0000:fff84040       _volmd                     0000000180000040     ccd_mpr.obj
 0000:fff84040       _volmd                     0000000180000040     collisioncodegen_ccdExtensions.obj
 0000:fff84050       _volmd                     0000000180000050     Modele_3D_sfun.obj
 0000:fff84050       _volmd                     0000000180000050     Modele_3D_sfun_registry.obj
 0000:fff84050       _volmd                     0000000180000050     c2_Modele_3D.obj
 0000:fff84050       _volmd                     0000000180000050     ccd_ccd.obj
 0000:fff84050       _volmd                     0000000180000050     ccd_mpr.obj
 0000:fff84060       _volmd                     0000000180000060     Modele_3D_sfun_registry.obj
 0000:fff84060       _volmd                     0000000180000060     c2_Modele_3D.obj
 0000:fff84060       _volmd                     0000000180000060     ccd_ccd.obj
 0000:fff84060       _volmd                     0000000180000060     ccd_mpr.obj
 0000:fff84070       _volmd                     0000000180000070     Modele_3D_sfun_registry.obj
 0000:fff84070       _volmd                     0000000180000070     c2_Modele_3D.obj
 0000:fff84070       _volmd                     0000000180000070     ccd_ccd.obj
 0000:fff84070       _volmd                     0000000180000070     ccd_mpr.obj
 0000:fff84080       _volmd                     0000000180000080     Modele_3D_sfun_registry.obj
 0000:fff84080       _volmd                     0000000180000080     c2_Modele_3D.obj
 0000:fff84080       _volmd                     0000000180000080     ccd_ccd.obj
 0000:fff84080       _volmd                     0000000180000080     ccd_mpr.obj
 0000:fff84090       _volmd                     0000000180000090     Modele_3D_sfun_registry.obj
 0000:fff84090       _volmd                     0000000180000090     c2_Modele_3D.obj
 0000:fff84090       _volmd                     0000000180000090     ccd_ccd.obj
 0000:fff840a0       _volmd                     00000001800000a0     Modele_3D_sfun_registry.obj
 0000:fff840a0       _volmd                     00000001800000a0     c2_Modele_3D.obj
 0000:fff840a0       _volmd                     00000001800000a0     ccd_ccd.obj
 0000:fff840b0       _volmd                     00000001800000b0     Modele_3D_sfun_registry.obj
 0000:fff840b0       _volmd                     00000001800000b0     c2_Modele_3D.obj
 0000:fff840b0       _volmd                     00000001800000b0     ccd_ccd.obj
 0000:fff840c0       _volmd                     00000001800000c0     Modele_3D_sfun_registry.obj
 0000:fff840c0       _volmd                     00000001800000c0     c2_Modele_3D.obj
 0000:fff840d0       _volmd                     00000001800000d0     Modele_3D_sfun_registry.obj
 0000:fff840d0       _volmd                     00000001800000d0     c2_Modele_3D.obj
 0000:fff840e0       _volmd                     00000001800000e0     Modele_3D_sfun_registry.obj
 0000:fff840e0       _volmd                     00000001800000e0     c2_Modele_3D.obj
 0000:fff840f0       _volmd                     00000001800000f0     Modele_3D_sfun_registry.obj
 0000:fff840f0       _volmd                     00000001800000f0     c2_Modele_3D.obj
 0000:fff84100       _volmd                     0000000180000100     Modele_3D_sfun_registry.obj
 0000:fff84100       _volmd                     0000000180000100     c2_Modele_3D.obj
 0000:fff84110       _volmd                     0000000180000110     c2_Modele_3D.obj
 0000:fff84120       _volmd                     0000000180000120     c2_Modele_3D.obj
 0000:fff84130       _volmd                     0000000180000130     c2_Modele_3D.obj
 0000:fff84140       _volmd                     0000000180000140     c2_Modele_3D.obj
 0000:fff84150       _volmd                     0000000180000150     c2_Modele_3D.obj
 0000:fff84160       _volmd                     0000000180000160     c2_Modele_3D.obj
 0000:fff84170       _volmd                     0000000180000170     c2_Modele_3D.obj
 0000:fff84180       _volmd                     0000000180000180     c2_Modele_3D.obj
 0000:fff84190       _volmd                     0000000180000190     c2_Modele_3D.obj
 0000:fff841a0       _volmd                     00000001800001a0     c2_Modele_3D.obj
 0000:fff841b0       _volmd                     00000001800001b0     c2_Modele_3D.obj
 0000:fff841c0       _volmd                     00000001800001c0     c2_Modele_3D.obj
 0000:fff841d0       _volmd                     00000001800001d0     c2_Modele_3D.obj
 0000:fff841e0       _volmd                     00000001800001e0     c2_Modele_3D.obj
 0000:fff841f0       _volmd                     00000001800001f0     c2_Modele_3D.obj
 0000:fff84200       _volmd                     0000000180000200     c2_Modele_3D.obj
 0000:fff84210       _volmd                     0000000180000210     c2_Modele_3D.obj
 0000:fff84220       _volmd                     0000000180000220     c2_Modele_3D.obj
 0000:fff84230       _volmd                     0000000180000230     c2_Modele_3D.obj
 0000:fff84240       _volmd                     0000000180000240     c2_Modele_3D.obj
 0000:fff84250       _volmd                     0000000180000250     c2_Modele_3D.obj
 0000:fff84260       _volmd                     0000000180000260     c2_Modele_3D.obj
 0000:fff84270       _volmd                     0000000180000270     c2_Modele_3D.obj
 0001:00001130       initialize_c2_Modele_3D    0000000180002130 f   c2_Modele_3D.obj
 0001:00001200       initialize_params_c2_Modele_3D 0000000180002200 f   c2_Modele_3D.obj
 0001:00001210       mdl_start_c2_Modele_3D     0000000180002210 f   c2_Modele_3D.obj
 0001:00001240       mdl_terminate_c2_Modele_3D 0000000180002240 f   c2_Modele_3D.obj
 0001:00001250       mdl_setup_runtime_resources_c2_Modele_3D 0000000180002250 f   c2_Modele_3D.obj
 0001:00001430       mdl_cleanup_runtime_resources_c2_Modele_3D 0000000180002430 f   c2_Modele_3D.obj
 0001:00001460       enable_c2_Modele_3D        0000000180002460 f   c2_Modele_3D.obj
 0001:00001490       disable_c2_Modele_3D       0000000180002490 f   c2_Modele_3D.obj
 0001:000014c0       sf_gateway_c2_Modele_3D    00000001800024c0 f   c2_Modele_3D.obj
 0001:00003b90       get_sim_state_c2_Modele_3D 0000000180004b90 f   c2_Modele_3D.obj
 0001:00004270       set_sim_state_c2_Modele_3D 0000000180005270 f   c2_Modele_3D.obj
 0001:00004640       c2_rigidBody_rigidBody     0000000180005640 f   c2_Modele_3D.obj
 0001:00006580       c2_rigidBodyJoint_set_MotionSubspace 0000000180007580 f   c2_Modele_3D.obj
 0001:00006b00       c2_CollisionSet_CollisionSet 0000000180007b00 f   c2_Modele_3D.obj
 0001:00006f50       c2_RigidBodyTree_initVisualizationInfo 0000000180007f50 f   c2_Modele_3D.obj
 0001:000072c0       c2_rand                    00000001800082c0 f   c2_Modele_3D.obj
 0001:00007c10       c2_RigidBodyTree_RigidBodyTree 0000000180008c10 f   c2_Modele_3D.obj
 0001:000087f0       c2_rigidBodyJoint_rigidBodyJoint 00000001800097f0 f   c2_Modele_3D.obj
 0001:0000a160       c2_RigidBody_RigidBody     000000018000b160 f   c2_Modele_3D.obj
 0001:0000a5a0       c2_b_rigidBodyJoint_rigidBodyJoint 000000018000b5a0 f   c2_Modele_3D.obj
 0001:0000bf20       c2_b_rigidBody_rigidBody   000000018000cf20 f   c2_Modele_3D.obj
 0001:0000de60       c2_c_rigidBodyJoint_rigidBodyJoint 000000018000ee60 f   c2_Modele_3D.obj
 0001:0000f7d0       c2_d_rigidBodyJoint_rigidBodyJoint 00000001800107d0 f   c2_Modele_3D.obj
 0001:00011140       c2_rigidBodyJoint_set_PositionLimits 0000000180012140 f   c2_Modele_3D.obj
 0001:000124e0       c2_validateattributes      00000001800134e0 f   c2_Modele_3D.obj
 0001:00012b60       c2_any                     0000000180013b60 f   c2_Modele_3D.obj
 0001:00012e60       c2_warning                 0000000180013e60 f   c2_Modele_3D.obj
 0001:00013020       c2_rigidBodyJoint_resetHomePosition 0000000180014020 f   c2_Modele_3D.obj
 0001:00014c90       c2_all                     0000000180015c90 f   c2_Modele_3D.obj
 0001:00014f80       c2_b_rigidBodyJoint_set_PositionLimits 0000000180015f80 f   c2_Modele_3D.obj
 0001:00016320       c2_rigidBody_set_Joint     0000000180017320 f   c2_Modele_3D.obj
 0001:00016900       c2_rigidBodyJoint_copy     0000000180017900 f   c2_Modele_3D.obj
 0001:00017ee0       c2_e_rigidBodyJoint_rigidBodyJoint 0000000180018ee0 f   c2_Modele_3D.obj
 0001:0001a9a0       c2_get_match               000000018001b9a0 f   c2_Modele_3D.obj
 0001:0001d980       c2_strcmp                  000000018001e980 f   c2_Modele_3D.obj
 0001:0001e6b0       c2_b_warning               000000018001f6b0 f   c2_Modele_3D.obj
 0001:0001e870       c2_rigidBodyTree_addBody   000000018001f870 f   c2_Modele_3D.obj
 0001:00021ba0       c2_b_strcmp                0000000180022ba0 f   c2_Modele_3D.obj
 0001:00021d60       c2_RigidBodyTree_validateInputBodyName 0000000180022d60 f   c2_Modele_3D.obj
 0001:000226a0       c2_RigidBodyTree_findBodyIndexByJointName 00000001800236a0 f   c2_Modele_3D.obj
 0001:00022f40       c2_RigidBody_copy          0000000180023f40 f   c2_Modele_3D.obj
 0001:00025d90       c2_b_rigidBodyTree_addBody 0000000180026d90 f   c2_Modele_3D.obj
 0001:00028fe0       c2_b_RigidBodyTree_validateInputBodyName 0000000180029fe0 f   c2_Modele_3D.obj
 0001:00029920       c2_rigidBodyTree_homeConfiguration 000000018002a920 f   c2_Modele_3D.obj
 0001:0002ac00       c2_assertValidSizeArg      000000018002bc00 f   c2_Modele_3D.obj
 0001:0002b170       c2_rigidBodyTree_getTransform 000000018002c170 f   c2_Modele_3D.obj
 0001:0002c550       c2_RigidBodyTree_validateConfiguration 000000018002d550 f   c2_Modele_3D.obj
 0001:0002ef60       c2_RigidBodyTree_forwardKinematics 000000018002ff60 f   c2_Modele_3D.obj
 0001:00032820       c2_indexShapeCheck         0000000180033820 f   c2_Modele_3D.obj
 0001:00032a70       c2_rigidBodyJoint_get_JointAxis 0000000180033a70 f   c2_Modele_3D.obj
 0001:00033040       c2_sumColumnB              0000000180034040 f   c2_Modele_3D.obj
 0001:000330c0       c2_cat                     00000001800340c0 f   c2_Modele_3D.obj
 0001:000333a0       c2_quat2tform              00000001800343a0 f   c2_Modele_3D.obj
 0001:000341b0       c2_b_sumColumnB            00000001800351b0 f   c2_Modele_3D.obj
 0001:00034230       c2_rotm2eul                0000000180035230 f   c2_Modele_3D.obj
 0001:000363d0       c2_function_handle_parenReference 00000001800373d0 f   c2_Modele_3D.obj
 0001:00036440       c2_expand_atan2            0000000180037440 f   c2_Modele_3D.obj
 0001:00036620       c2_b_RigidBodyTree_initVisualizationInfo 0000000180037620 f   c2_Modele_3D.obj
 0001:00036990       c2_handle_matlabCodegenDestructor 0000000180037990 f   c2_Modele_3D.obj
 0001:000369c0       c2_b_handle_matlabCodegenDestructor 00000001800379c0 f   c2_Modele_3D.obj
 0001:000369f0       c2_c_handle_matlabCodegenDestructor 00000001800379f0 f   c2_Modele_3D.obj
 0001:00036a20       c2_d_handle_matlabCodegenDestructor 0000000180037a20 f   c2_Modele_3D.obj
 0001:00036a50       c2_e_handle_matlabCodegenDestructor 0000000180037a50 f   c2_Modele_3D.obj
 0001:00036a80       c2_f_handle_matlabCodegenDestructor 0000000180037a80 f   c2_Modele_3D.obj
 0001:00036ab0       c2_g_handle_matlabCodegenDestructor 0000000180037ab0 f   c2_Modele_3D.obj
 0001:00036d40       c2_emlrt_marshallIn        0000000180037d40 f   c2_Modele_3D.obj
 0001:00036db0       c2_b_emlrt_marshallIn      0000000180037db0 f   c2_Modele_3D.obj
 0001:00036e40       c2_c_emlrt_marshallIn      0000000180037e40 f   c2_Modele_3D.obj
 0001:00036eb0       c2_d_emlrt_marshallIn      0000000180037eb0 f   c2_Modele_3D.obj
 0001:00036f70       c2_e_emlrt_marshallIn      0000000180037f70 f   c2_Modele_3D.obj
 0001:00036ff0       c2_f_emlrt_marshallIn      0000000180037ff0 f   c2_Modele_3D.obj
 0001:00037110       c2_g_emlrt_marshallIn      0000000180038110 f   c2_Modele_3D.obj
 0001:00037190       c2_h_emlrt_marshallIn      0000000180038190 f   c2_Modele_3D.obj
 0001:00037280       c2_feval                   0000000180038280 f   c2_Modele_3D.obj
 0001:00037350       c2_b_feval                 0000000180038350 f   c2_Modele_3D.obj
 0001:000373f0       c2_c_feval                 00000001800383f0 f   c2_Modele_3D.obj
 0001:000374c0       c2_d_feval                 00000001800384c0 f   c2_Modele_3D.obj
 0001:00037560       c2_b_CharacterVector_setVector 0000000180038560 f   c2_Modele_3D.obj
 0001:00037940       c2_plus                    0000000180038940 f   c2_Modele_3D.obj
 0001:00037b80       c2_array_robotics_manip_internal_C 0000000180038b80 f   c2_Modele_3D.obj
 0001:00037d50       c2_array_boolean_T_2D_SetSize 0000000180038d50 f   c2_Modele_3D.obj
 0001:00037f10       c2_array_sb0EDBCsZRrtH46t9p8H3X_2D 0000000180038f10 f   c2_Modele_3D.obj
 0001:000380d0       c2_array_s_dcxMVnjsLRtcxNw5c8LFlF_ 00000001800390d0 f   c2_Modele_3D.obj
 0001:000382e0       c2_b_array_s_dcxMVnjsLRtcxNw5c8LFlF_ 00000001800392e0 f   c2_Modele_3D.obj
 0001:00038330       c2_array_char_T_1x200_Constructor 0000000180039330 f   c2_Modele_3D.obj
 0001:00038380       c2_array_real_T_1x7_Constructor 0000000180039380 f   c2_Modele_3D.obj
 0001:000383c0       c2_array_real_T_SetSize    00000001800393c0 f   c2_Modele_3D.obj
 0001:00038540       c2_array_int32_T_2D_SetSize 0000000180039540 f   c2_Modele_3D.obj
 0001:00038700       c2_array_real_T_2D_SetSize 0000000180039700 f   c2_Modele_3D.obj
 0001:000388c0       c2_b_array_robotics_manip_internal_C 00000001800398c0 f   c2_Modele_3D.obj
 0001:00038920       c2_c_array_robotics_manip_internal_C 0000000180039920 f   c2_Modele_3D.obj
 0001:00038950       c2_d_array_robotics_manip_internal_C 0000000180039950 f   c2_Modele_3D.obj
 0001:000389c0       c2_array_robotics_manip_internal_R 00000001800399c0 f   c2_Modele_3D.obj
 0001:00038a20       c2_b_array_robotics_manip_internal_R 0000000180039a20 f   c2_Modele_3D.obj
 0001:00038a70       c2_c_array_robotics_manip_internal_R 0000000180039a70 f   c2_Modele_3D.obj
 0001:00038ab0       c2_array_rigidBodyTree_Constructor 0000000180039ab0 f   c2_Modele_3D.obj
 0001:00038b00       c2_d_array_robotics_manip_internal_R 0000000180039b00 f   c2_Modele_3D.obj
 0001:00038b40       c2_e_array_robotics_manip_internal_C 0000000180039b40 f   c2_Modele_3D.obj
 0001:00038ba0       c2_c_array_s_dcxMVnjsLRtcxNw5c8LFlF_ 0000000180039ba0 f   c2_Modele_3D.obj
 0001:00038c10       c2_f_array_robotics_manip_internal_C 0000000180039c10 f   c2_Modele_3D.obj
 0001:00038c70       c2_g_array_robotics_manip_internal_C 0000000180039c70 f   c2_Modele_3D.obj
 0001:00038cb0       c2_h_array_robotics_manip_internal_C 0000000180039cb0 f   c2_Modele_3D.obj
 0001:00038ce0       c2_e_array_robotics_manip_internal_R 0000000180039ce0 f   c2_Modele_3D.obj
 0001:00038d40       c2_f_array_robotics_manip_internal_R 0000000180039d40 f   c2_Modele_3D.obj
 0001:00038d80       c2_g_array_robotics_manip_internal_R 0000000180039d80 f   c2_Modele_3D.obj
 0001:00038dd0       c2_i_array_robotics_manip_internal_C 0000000180039dd0 f   c2_Modele_3D.obj
 0001:00038e30       c2_h_array_robotics_manip_internal_R 0000000180039e30 f   c2_Modele_3D.obj
 0001:00038e70       c2_array_rigidBodyTree_Destructor 0000000180039e70 f   c2_Modele_3D.obj
 0001:00038ec0       c2_d_array_s_dcxMVnjsLRtcxNw5c8LFlF_ 0000000180039ec0 f   c2_Modele_3D.obj
 0001:00038f00       c2_b_array_sb0EDBCsZRrtH46t9p8H3X_2D 0000000180039f00 f   c2_Modele_3D.obj
 0001:00038f70       c2_array_boolean_T_2D_Constructor 0000000180039f70 f   c2_Modele_3D.obj
 0001:00038fe0       c2_c_array_sb0EDBCsZRrtH46t9p8H3X_2D 0000000180039fe0 f   c2_Modele_3D.obj
 0001:00039020       c2_array_boolean_T_2D_Destructor 000000018003a020 f   c2_Modele_3D.obj
 0001:00039060       c2_array_real_T_Constructor 000000018003a060 f   c2_Modele_3D.obj
 0001:000390c0       c2_array_real_T_Destructor 000000018003a0c0 f   c2_Modele_3D.obj
 0001:00039100       c2_array_int32_T_2D_Constructor 000000018003a100 f   c2_Modele_3D.obj
 0001:00039170       c2_array_int32_T_2D_Destructor 000000018003a170 f   c2_Modele_3D.obj
 0001:000391b0       c2_array_real_T_2D_Constructor 000000018003a1b0 f   c2_Modele_3D.obj
 0001:00039220       c2_array_real_T_2D_Destructor 000000018003a220 f   c2_Modele_3D.obj
 0001:00039260       init_dsm_address_info      000000018003a260 f   c2_Modele_3D.obj
 0001:00039270       init_simulink_io_address   000000018003a270 f   c2_Modele_3D.obj
 0001:000395c0       sf_get_sim_state_info_c2_Modele_3D 000000018003a5c0 f   c2_Modele_3D.obj
 0001:00039680       sf_opaque_initialize_c2_Modele_3D 000000018003a680 f   c2_Modele_3D.obj
 0001:000396b0       sf_opaque_enable_c2_Modele_3D 000000018003a6b0 f   c2_Modele_3D.obj
 0001:000396d0       sf_opaque_disable_c2_Modele_3D 000000018003a6d0 f   c2_Modele_3D.obj
 0001:000396f0       sf_opaque_gateway_c2_Modele_3D 000000018003a6f0 f   c2_Modele_3D.obj
 0001:00039710       sf_opaque_get_sim_state_c2_Modele_3D 000000018003a710 f   c2_Modele_3D.obj
 0001:00039740       sf_opaque_set_sim_state_c2_Modele_3D 000000018003a740 f   c2_Modele_3D.obj
 0001:00039770       sf_opaque_cleanup_runtime_resources_c2_Modele_3D 000000018003a770 f   c2_Modele_3D.obj
 0001:00039810       sf_opaque_mdl_start_c2_Modele_3D 000000018003a810 f   c2_Modele_3D.obj
 0001:00039850       sf_opaque_mdl_terminate_c2_Modele_3D 000000018003a850 f   c2_Modele_3D.obj
 0001:00039870       mdlProcessParameters_c2_Modele_3D 000000018003a870 f   c2_Modele_3D.obj
 0001:00039ab0       mdlSetWorkWidths_c2_Modele_3D 000000018003aab0 f   c2_Modele_3D.obj
 0001:00039b40       mdlRTW_c2_Modele_3D        000000018003ab40 f   c2_Modele_3D.obj
 0001:00039b80       mdlSetupRuntimeResources_c2_Modele_3D 000000018003ab80 f   c2_Modele_3D.obj
 0001:0003c634       $LN197                     000000018003d634     Modele_3D_sfun_registry.obj
 0001:0003d494       $LN22                      000000018003e494     Modele_3D_sfun_registry.obj
 0001:0003db94       $LN26                      000000018003eb94     Modele_3D_sfun_registry.obj
 0001:0003e274       $LN24                      000000018003f274     Modele_3D_sfun_registry.obj
 0001:0003efac       $LN30                      000000018003ffac     Modele_3D_sfun_registry.obj
 0001:000425c0       ProcessMexSfunctionCmdLineCall 00000001800435c0 f   Modele_3D_sfun_registry.obj
 0001:00042870       mdlSetWorkWidths           0000000180043870 f   Modele_3D_sfun_registry.obj
 0001:000428c0       mdlProcessParameters       00000001800438c0 f   Modele_3D_sfun_registry.obj
 0001:000428f0       mdl_setup_runtime_resources_processing 00000001800438f0 f   Modele_3D_sfun_registry.obj
 0001:00042950       mdlSetupRuntimeResources   0000000180043950 f   Modele_3D_sfun_registry.obj
 0001:00042980       mdl_cleanup_runtime_resources_processing 0000000180043980 f   Modele_3D_sfun_registry.obj
 0001:00042a40       mdlCleanupRuntimeResources 0000000180043a40 f   Modele_3D_sfun_registry.obj
 0001:00042a70       mdl_start_processing       0000000180043a70 f   Modele_3D_sfun_registry.obj
 0001:00042ab0       mdlStart                   0000000180043ab0 f   Modele_3D_sfun_registry.obj
 0001:00042ae0       mdl_terminate_processing   0000000180043ae0 f   Modele_3D_sfun_registry.obj
 0001:00042b20       mdlTerminate               0000000180043b20 f   Modele_3D_sfun_registry.obj
 0001:00042b50       mdlInitializeSizes         0000000180043b50 f   Modele_3D_sfun_registry.obj
 0001:00042b80       mdlInitializeSampleTimes   0000000180043b80 f   Modele_3D_sfun_registry.obj
 0001:00042bb0       mdl_outputs_continuous_legacy 0000000180043bb0 f   Modele_3D_sfun_registry.obj
 0001:00042cb0       mdl_outputs_processing     0000000180043cb0 f   Modele_3D_sfun_registry.obj
 0001:00042e10       mdl_zeroCrossings_processing 0000000180043e10 f   Modele_3D_sfun_registry.obj
 0001:00042e50       mdlZeroCrossings           0000000180043e50 f   Modele_3D_sfun_registry.obj
 0001:00042e80       mdl_derivatives_processing 0000000180043e80 f   Modele_3D_sfun_registry.obj
 0001:00042ed0       mdlDerivatives             0000000180043ed0 f   Modele_3D_sfun_registry.obj
 0001:00042f00       mdl_initialize_conditions_processing 0000000180043f00 f   Modele_3D_sfun_registry.obj
 0001:00042f50       mdlInitializeConditions    0000000180043f50 f   Modele_3D_sfun_registry.obj
 0001:00042f80       mdl_ext_mode_exec_processing 0000000180043f80 f   Modele_3D_sfun_registry.obj
 0001:00042fc0       mdlExtModeExec             0000000180043fc0 f   Modele_3D_sfun_registry.obj
 0001:00042ff0       mdlRTW                     0000000180043ff0 f   Modele_3D_sfun_registry.obj
 0001:00043030       mdl_enable_processing      0000000180044030 f   Modele_3D_sfun_registry.obj
 0001:00043070       mdlEnable                  0000000180044070 f   Modele_3D_sfun_registry.obj
 0001:000430a0       mdl_disable_processing     00000001800440a0 f   Modele_3D_sfun_registry.obj
 0001:000430e0       mdlDisable                 00000001800440e0 f   Modele_3D_sfun_registry.obj
 0001:00043110       mdlOutputs                 0000000180044110 f   Modele_3D_sfun_registry.obj
 0001:00043140       mdl_update_processing      0000000180044140 f   Modele_3D_sfun_registry.obj
 0001:00043190       mdlUpdate                  0000000180044190 f   Modele_3D_sfun_registry.obj
 0001:00043380       mdlGetTimeOfNextVarHit     0000000180044380 f   Modele_3D_sfun_registry.obj
 0001:000433d0       _RegNumInputPortsCB        00000001800443d0 f   Modele_3D_sfun_registry.obj
 0001:00043450       _RegNumOutputPortsCB       0000000180044450 f   Modele_3D_sfun_registry.obj
 0001:000434d0       _CreateSimStruct           00000001800444d0 f   Modele_3D_sfun_registry.obj
 0001:00043700       _ProcessMexSfunctionCmdLineCall 0000000180044700 f   Modele_3D_sfun_registry.obj
 0001:00044170       ReportIndexOutOfBoundsError 0000000180045170 f   Modele_3D_sfun_registry.obj
 0001:000444a0       ccdSign                    00000001800454a0 f   ccd_ccd.obj
 0001:000444f0       ccdIsZero                  00000001800454f0 f   ccd_ccd.obj
 0001:00044540       ccdEq                      0000000180045540 f   ccd_ccd.obj
 0001:00044630       ccdVec3X                   0000000180045630 f   ccd_ccd.obj
 0001:00044650       ccdVec3Y                   0000000180045650 f   ccd_ccd.obj
 0001:00044670       ccdVec3Z                   0000000180045670 f   ccd_ccd.obj
 0001:00044690       ccdVec3Eq                  0000000180045690 f   ccd_ccd.obj
 0001:00044740       ccdVec3Len2                0000000180045740 f   ccd_ccd.obj
 0001:00044770       ccdVec3Set                 0000000180045770 f   ccd_ccd.obj
 0001:000447e0       ccdVec3Copy                00000001800457e0 f   ccd_ccd.obj
 0001:00044810       ccdVec3Add                 0000000180045810 f   ccd_ccd.obj
 0001:000448d0       ccdVec3Sub2                00000001800458d0 f   ccd_ccd.obj
 0001:000449a0       ccdVec3Scale               00000001800459a0 f   ccd_ccd.obj
 0001:00044a40       ccdVec3Normalize           0000000180045a40 f   ccd_ccd.obj
 0001:00044a90       ccdVec3Dot                 0000000180045a90 f   ccd_ccd.obj
 0001:00044b50       ccdVec3Cross               0000000180045b50 f   ccd_ccd.obj
 0001:00044ca0       ccdSupportCopy             0000000180045ca0 f   ccd_ccd.obj
 0001:00044cd0       ccdSimplexInit             0000000180045cd0 f   ccd_ccd.obj
 0001:00044cf0       ccdSimplexSize             0000000180045cf0 f   ccd_ccd.obj
 0001:00044d10       ccdSimplexLast             0000000180045d10 f   ccd_ccd.obj
 0001:00044d40       ccdSimplexPoint            0000000180045d40 f   ccd_ccd.obj
 0001:00044d70       ccdSimplexAdd              0000000180045d70 f   ccd_ccd.obj
 0001:00044dd0       ccdSimplexSet              0000000180045dd0 f   ccd_ccd.obj
 0001:00044e10       ccdSimplexSetSize          0000000180045e10 f   ccd_ccd.obj
 0001:00045340       ccdListDel                 0000000180046340 f   ccd_ccd.obj
 0001:00045390       ccdPtFaceVec3              0000000180046390 f   ccd_ccd.obj
 0001:000454f0       ccdPtFaceEdges             00000001800464f0 f   ccd_ccd.obj
 0001:00045560       ccdPtEdgeVec3              0000000180046560 f   ccd_ccd.obj
 0001:000455c0       ccdPtEdgeVertices          00000001800465c0 f   ccd_ccd.obj
 0001:00045610       ccdPtEdgeFaces             0000000180046610 f   ccd_ccd.obj
 0001:00045660       ccdPtDelEdge               0000000180046660 f   ccd_ccd.obj
 0001:00045710       ccdPtDelFace               0000000180046710 f   ccd_ccd.obj
 0001:00045800       __ccdGJKEPA                0000000180046800 f   ccd_ccd.obj
 0001:00045a30       doSimplex                  0000000180046a30 f   ccd_ccd.obj
 0001:00045aa0       doSimplex2                 0000000180046aa0 f   ccd_ccd.obj
 0001:00045c10       doSimplex3                 0000000180046c10 f   ccd_ccd.obj
 0001:00046050       doSimplex4                 0000000180047050 f   ccd_ccd.obj
 0001:00046570       tripleCross                0000000180047570 f   ccd_ccd.obj
 0001:000465e0       simplexToPolytope4         00000001800475e0 f   ccd_ccd.obj
 0001:00046b60       simplexToPolytope3         0000000180047b60 f   ccd_ccd.obj
 0001:00047380       simplexToPolytope2         0000000180048380 f   ccd_ccd.obj
 0001:00047e00       expandPolytope             0000000180048e00 f   ccd_ccd.obj
 0001:000489e0       nextSupport                00000001800499e0 f   ccd_ccd.obj
 0001:00048b50       penEPAPosCmp               0000000180049b50 f   ccd_ccd.obj
 0001:00048bd0       penEPAPos                  0000000180049bd0 f   ccd_ccd.obj
 0001:00048dd0       ccdIsZero                  0000000180049dd0 f   ccd_mpr.obj
 0001:00048e20       ccdEq                      0000000180049e20 f   ccd_mpr.obj
 0001:00048f10       ccdVec3X                   0000000180049f10 f   ccd_mpr.obj
 0001:00048f30       ccdVec3Y                   0000000180049f30 f   ccd_mpr.obj
 0001:00048f50       ccdVec3Z                   0000000180049f50 f   ccd_mpr.obj
 0001:00048f70       ccdVec3Eq                  0000000180049f70 f   ccd_mpr.obj
 0001:00049020       ccdVec3Len2                000000018004a020 f   ccd_mpr.obj
 0001:00049050       ccdVec3Set                 000000018004a050 f   ccd_mpr.obj
 0001:000490c0       ccdVec3Copy                000000018004a0c0 f   ccd_mpr.obj
 0001:000490f0       ccdVec3Add                 000000018004a0f0 f   ccd_mpr.obj
 0001:000491b0       ccdVec3Sub2                000000018004a1b0 f   ccd_mpr.obj
 0001:00049280       ccdVec3Scale               000000018004a280 f   ccd_mpr.obj
 0001:00049320       ccdVec3Normalize           000000018004a320 f   ccd_mpr.obj
 0001:00049370       ccdVec3Dot                 000000018004a370 f   ccd_mpr.obj
 0001:00049430       ccdVec3Cross               000000018004a430 f   ccd_mpr.obj
 0001:00049580       ccdSupportCopy             000000018004a580 f   ccd_mpr.obj
 0001:000495b0       ccdSimplexSize             000000018004a5b0 f   ccd_mpr.obj
 0001:000495d0       ccdSimplexPoint            000000018004a5d0 f   ccd_mpr.obj
 0001:00049600       ccdSimplexPointW           000000018004a600 f   ccd_mpr.obj
 0001:00049630       ccdSimplexSet              000000018004a630 f   ccd_mpr.obj
 0001:00049670       ccdSimplexSetSize          000000018004a670 f   ccd_mpr.obj
 0001:000496a0       ccdSimplexSwap             000000018004a6a0 f   ccd_mpr.obj
 0001:000499f0       findOrigin                 000000018004a9f0 f   ccd_mpr.obj
 0001:00049a80       discoverPortal             000000018004aa80 f   ccd_mpr.obj
 0001:0004a130       refinePortal               000000018004b130 f   ccd_mpr.obj
 0001:0004a250       findPenetr                 000000018004b250 f   ccd_mpr.obj
 0001:0004a450       findPenetrTouch            000000018004b450 f   ccd_mpr.obj
 0001:0004a4f0       findPenetrSegment          000000018004b4f0 f   ccd_mpr.obj
 0001:0004a5b0       findPos                    000000018004b5b0 f   ccd_mpr.obj
 0001:0004ab10       expandPortal               000000018004bb10 f   ccd_mpr.obj
 0001:0004ac60       portalDir                  000000018004bc60 f   ccd_mpr.obj
 0001:0004ad40       portalEncapsulesOrigin     000000018004bd40 f   ccd_mpr.obj
 0001:0004adb0       portalReachTolerance       000000018004bdb0 f   ccd_mpr.obj
 0001:0004af10       portalCanEncapsuleOrigin   000000018004bf10 f   ccd_mpr.obj
 0001:0004af80       ccdEq                      000000018004bf80 f   ccd_polytope.obj
 0001:0004b070       ccdVec3X                   000000018004c070 f   ccd_polytope.obj
 0001:0004b090       ccdVec3Y                   000000018004c090 f   ccd_polytope.obj
 0001:0004b0b0       ccdVec3Z                   000000018004c0b0 f   ccd_polytope.obj
 0001:0004b0d0       ccdVec3Len2                000000018004c0d0 f   ccd_polytope.obj
 0001:0004b100       ccdVec3Copy                000000018004c100 f   ccd_polytope.obj
 0001:0004b130       ccdVec3Dot                 000000018004c130 f   ccd_polytope.obj
 0001:0004b1f0       ccdSupportCopy             000000018004c1f0 f   ccd_polytope.obj
 0001:0004b220       ccdListInit                000000018004c220 f   ccd_polytope.obj
 0001:0004b250       ccdListEmpty               000000018004c250 f   ccd_polytope.obj
 0001:0004b290       ccdListAppend              000000018004c290 f   ccd_polytope.obj
 0001:0004b2e0       ccdListDel                 000000018004c2e0 f   ccd_polytope.obj
 0001:0004ba40       ccdPtDelVertex             000000018004ca40 f   ccd_polytope.obj
 0001:0004bac0       ccdPtDelEdge               000000018004cac0 f   ccd_polytope.obj
 0001:0004bb70       ccdPtDelFace               000000018004cb70 f   ccd_polytope.obj
 0001:0004c2f0       _ccdPtNearestUpdate        000000018004d2f0 f   ccd_polytope.obj
 0001:0004c3c0       _ccdPtNearestRenew         000000018004d3c0 f   ccd_polytope.obj
 0001:0004c580       ccdIsZero                  000000018004d580 f   ccd_vec3.obj
 0001:0004c5d0       ccdEq                      000000018004d5d0 f   ccd_vec3.obj
 0001:0004c6c0       ccdVec3Len2                000000018004d6c0 f   ccd_vec3.obj
 0001:0004c6f0       ccdVec3Dist2               000000018004d6f0 f   ccd_vec3.obj
 0001:0004c750       ccdVec3Copy                000000018004d750 f   ccd_vec3.obj
 0001:0004c780       ccdVec3Add                 000000018004d780 f   ccd_vec3.obj
 0001:0004c840       ccdVec3Sub2                000000018004d840 f   ccd_vec3.obj
 0001:0004c910       ccdVec3Scale               000000018004d910 f   ccd_vec3.obj
 0001:0004c9b0       ccdVec3Dot                 000000018004d9b0 f   ccd_vec3.obj
 0001:0004cfb0       __ccdVec3PointSegmentDist2 000000018004dfb0 f   ccd_vec3.obj
 0001:0004d1c0       ccdVec3X                   000000018004e1c0 f   collisioncodegen_CollisionGeometry.obj
 0001:0004d1e0       ccdVec3Y                   000000018004e1e0 f   collisioncodegen_CollisionGeometry.obj
 0001:0004d200       ccdVec3Z                   000000018004e200 f   collisioncodegen_CollisionGeometry.obj
 0001:0004d220       ccdVec3Len2                000000018004e220 f   collisioncodegen_CollisionGeometry.obj
 0001:0004d250       ccdVec3Set                 000000018004e250 f   collisioncodegen_CollisionGeometry.obj
 0001:0004d2c0       ccdVec3Copy                000000018004e2c0 f   collisioncodegen_CollisionGeometry.obj
 0001:0004d2f0       ccdVec3Add                 000000018004e2f0 f   collisioncodegen_CollisionGeometry.obj
 0001:0004d3b0       ccdVec3Scale               000000018004e3b0 f   collisioncodegen_CollisionGeometry.obj
 0001:0004d450       ccdVec3Dot                 000000018004e450 f   collisioncodegen_CollisionGeometry.obj
 0001:0004d510       ccdQuatLen2                000000018004e510 f   collisioncodegen_CollisionGeometry.obj
 0001:0004d600       ccdQuatCopy                000000018004e600 f   collisioncodegen_CollisionGeometry.obj
 0001:0004d630       ccdQuatInvert              000000018004e630 f   collisioncodegen_CollisionGeometry.obj
 0001:0004d750       ccdQuatInvert2             000000018004e750 f   collisioncodegen_CollisionGeometry.obj
 0001:0004d790       ccdQuatRotVec              000000018004e790 f   collisioncodegen_CollisionGeometry.obj
 0001:0004e5b4       $LN25                      000000018004f5b4     collisioncodegen_CollisionGeometry.obj
 0001:000543d0       ccdVec3Set                 00000001800553d0 f   collisioncodegen_api.obj
 0001:00057bd0       ccdEq                      0000000180058bd0 f   collisioncodegen_ccdExtensions.obj
 0001:00057cc0       ccdVec3X                   0000000180058cc0 f   collisioncodegen_ccdExtensions.obj
 0001:00057ce0       ccdVec3Y                   0000000180058ce0 f   collisioncodegen_ccdExtensions.obj
 0001:00057d00       ccdVec3Z                   0000000180058d00 f   collisioncodegen_ccdExtensions.obj
 0001:00057d20       ccdVec3Eq                  0000000180058d20 f   collisioncodegen_ccdExtensions.obj
 0001:00057dd0       ccdVec3Len2                0000000180058dd0 f   collisioncodegen_ccdExtensions.obj
 0001:00057e00       ccdVec3Set                 0000000180058e00 f   collisioncodegen_ccdExtensions.obj
 0001:00057e70       ccdVec3Copy                0000000180058e70 f   collisioncodegen_ccdExtensions.obj
 0001:00057ea0       ccdVec3Add                 0000000180058ea0 f   collisioncodegen_ccdExtensions.obj
 0001:00057f60       ccdVec3Sub2                0000000180058f60 f   collisioncodegen_ccdExtensions.obj
 0001:00058030       ccdVec3Scale               0000000180059030 f   collisioncodegen_ccdExtensions.obj
 0001:000580d0       ccdVec3Dot                 00000001800590d0 f   collisioncodegen_ccdExtensions.obj
 0001:00058190       ccdVec3Cross               0000000180059190 f   collisioncodegen_ccdExtensions.obj
 0001:000582e0       ccdSimplexSize             00000001800592e0 f   collisioncodegen_ccdExtensions.obj
 0001:000597b0       ccdVec3Set                 000000018005a7b0 f   collisioncodegen_checkCollision.obj
 0001:00059820       ccdQuatSet                 000000018005a820 f   collisioncodegen_checkCollision.obj
 0001:00059ce0       ?fSupport@@YAXPEBXPEBU_ccd_vec3_t@@PEAU1@@Z 000000018005ace0 f   collisioncodegen_checkCollision.obj
 0001:0005a9ec       capture_current_context    000000018005b9ec f   MSVCRT:gs_report.obj
 0001:0005aa5c       capture_previous_context   000000018005ba5c f   MSVCRT:gs_report.obj
 0001:0005ab50       $$000000                   000000018005bb50     MSVCRT:amdsecgs.obj
 0001:0005ab80       $$000000                   000000018005bb80     MSVCRT:chkstk.obj
 0001:0005acdc       ?dllmain_crt_dispatch@@YAHQEAUHINSTANCE__@@KQEAX@Z 000000018005bcdc f   MSVCRT:dll_dllmain.obj
 0001:0005ad2c       ?dllmain_crt_process_attach@@YAHQEAUHINSTANCE__@@QEAX@Z 000000018005bd2c f   MSVCRT:dll_dllmain.obj
 0001:0005ae44       ?dllmain_crt_process_detach@@YAH_N@Z 000000018005be44 f   MSVCRT:dll_dllmain.obj
 0001:0005aec8       ?dllmain_dispatch@@YAHQEAUHINSTANCE__@@KQEAX@Z 000000018005bec8 f   MSVCRT:dll_dllmain.obj
 0001:0005affc       ?dllmain_raw@@YAHQEAUHINSTANCE__@@KQEAX@Z 000000018005bffc f   MSVCRT:dll_dllmain.obj
 0001:0005b0c8       __get_entropy              000000018005c0c8 f   MSVCRT:gs_support.obj
 0001:0005b258       ?find_pe_section@@YAPEAU_IMAGE_SECTION_HEADER@@QEAE_K@Z 000000018005c258 f   MSVCRT:utility.obj
 0001:0005b2ac       ?is_potentially_valid_image_base@@YA_NQEAX@Z 000000018005c2ac f   MSVCRT:utility.obj
 0001:0005b9f8       __castguard_compat_check   000000018005c9f8 f   MSVCRT:guard_support.obj
 0001:0005bae4       __castguard_slow_path_compat_check 000000018005cae4 f   MSVCRT:guard_support.obj
 0001:0005bec0       $$000000                   000000018005cec0     MSVCRT:guard_dispatch.obj
 0001:0005bee0       $$000000                   000000018005cee0     MSVCRT:guard_xfg_dispatch.obj
 0001:0005bf00       ?dtor$0@?0??support@CollisionGeometry@shared_robotics@@QEBAXPEBU_ccd_vec3_t@@PEAU3@@Z@4HA 000000018005cf00 f   collisioncodegen_CollisionGeometry.obj
 0001:0005bf20       ?dtor$0@?0???$?6U?$char_traits@D@std@@@std@@YAAEAV?$basic_ostream@DU?$char_traits@D@std@@@0@AEAV10@PEBD@Z@4HA 000000018005cf20 f   collisioncodegen_CollisionGeometry.obj
 0001:0005bf40       ?catch$1@?0???$?6U?$char_traits@D@std@@@std@@YAAEAV?$basic_ostream@DU?$char_traits@D@std@@@0@AEAV10@PEBD@Z@4HA 000000018005cf40 f   collisioncodegen_CollisionGeometry.obj
 0001:0005bf4d       __catch$??$?6U?$char_traits@D@std@@@std@@YAAEAV?$basic_ostream@DU?$char_traits@D@std@@@0@AEAV10@PEBD@Z$0 000000018005cf4d f   collisioncodegen_CollisionGeometry.obj
 0001:0005bf90       ?catch$0@?0???$_Emplace_reallocate@AEB_K@?$vector@_KV?$allocator@_K@std@@@std@@QEAAPEA_KQEA_KAEB_K@Z@4HA 000000018005cf90 f   collisioncodegen_CollisionGeometry.obj
 0001:0005bf9d       __catch$??$_Emplace_reallocate@AEB_K@?$vector@_KV?$allocator@_K@std@@@std@@QEAAPEA_KQEA_KAEB_K@Z$0 000000018005cf9d f   collisioncodegen_CollisionGeometry.obj
 0001:0005bfe0       ?catch$0@?0???$_Emplace_reallocate@N@?$vector@NV?$allocator@N@std@@@std@@QEAAPEANQEAN$$QEAN@Z@4HA 000000018005cfe0 f   collisioncodegen_CollisionGeometry.obj
 0001:0005bfed       __catch$??$_Emplace_reallocate@N@?$vector@NV?$allocator@N@std@@@std@@QEAAPEANQEAN$$QEAN@Z$0 000000018005cfed f   collisioncodegen_CollisionGeometry.obj
 0001:0005c030       ?catch$0@?0???$_Resize_reallocate@U_Value_init_tag@std@@@?$vector@V?$vector@_KV?$allocator@_K@std@@@std@@V?$allocator@V?$vector@_KV?$allocator@_K@std@@@std@@@2@@std@@AEAAX_KAEBU_Value_init_tag@1@@Z@4HA 000000018005d030 f   collisioncodegen_CollisionGeometry.obj
 0001:0005c03d       __catch$??$_Resize_reallocate@U_Value_init_tag@std@@@?$vector@V?$vector@_KV?$allocator@_K@std@@@std@@V?$allocator@V?$vector@_KV?$allocator@_K@std@@@std@@@2@@std@@AEAAX_KAEBU_Value_init_tag@1@@Z$0 000000018005d03d f   collisioncodegen_CollisionGeometry.obj
 0001:0005c090       ?catch$0@?0???$_Resize_reallocate@U_Value_init_tag@std@@@?$vector@_KV?$allocator@_K@std@@@std@@AEAAX_KAEBU_Value_init_tag@1@@Z@4HA 000000018005d090 f   collisioncodegen_CollisionGeometry.obj
 0001:0005c09d       __catch$??$_Resize_reallocate@U_Value_init_tag@std@@@?$vector@_KV?$allocator@_K@std@@@std@@AEAAX_KAEBU_Value_init_tag@1@@Z$0 000000018005d09d f   collisioncodegen_CollisionGeometry.obj
 0001:0005c0f0       ?dtor$0@?0???$_Uninitialized_move@PEANV?$allocator@N@std@@@std@@YAPEANQEAN0PEANAEAV?$allocator@N@0@@Z@4HA 000000018005d0f0 f   collisioncodegen_CollisionGeometry.obj
 0001:0005c110       ?dtor$0@?0???$_Uninitialized_move@PEAV?$vector@_KV?$allocator@_K@std@@@std@@V?$allocator@V?$vector@_KV?$allocator@_K@std@@@std@@@2@@std@@YAPEAV?$vector@_KV?$allocator@_K@std@@@0@QEAV10@0PEAV10@AEAV?$allocator@V?$vector@_KV?$allocator@_K@std@@@std@@@0@@Z@4HA 000000018005d110 f   collisioncodegen_CollisionGeometry.obj
 0001:0005c130       ?dtor$0@?0???$_Uninitialized_move@PEA_KV?$allocator@_K@std@@@std@@YAPEA_KQEA_K0PEA_KAEAV?$allocator@_K@0@@Z@4HA 000000018005d130 f   collisioncodegen_CollisionGeometry.obj
 0001:0005c150       ?dtor$0@?0???$_Uninitialized_value_construct_n@V?$allocator@V?$vector@_KV?$allocator@_K@std@@@std@@@std@@@std@@YAPEAV?$vector@_KV?$allocator@_K@std@@@0@PEAV10@_KAEAV?$allocator@V?$vector@_KV?$allocator@_K@std@@@std@@@0@@Z@4HA 000000018005d150 f   collisioncodegen_CollisionGeometry.obj
 0001:0005c170       ?dtor$0@?0???$_Uninitialized_value_construct_n@V?$allocator@_K@std@@@std@@YAPEA_KPEA_K_KAEAV?$allocator@_K@0@@Z@4HA 000000018005d170 f   collisioncodegen_CollisionGeometry.obj
 0001:0005c190       ?dtor$0@?0???0sentry@?$basic_ostream@DU?$char_traits@D@std@@@std@@QEAA@AEAV12@@Z@4HA 000000018005d190 f   collisioncodegen_CollisionGeometry.obj
 0001:0005c1b0       collisioncodegen_makeBox$dtor$0 000000018005d1b0 f   collisioncodegen_api.obj
 0001:0005c1cd       collisioncodegen_makeSphere$dtor$0 000000018005d1cd f   collisioncodegen_api.obj
 0001:0005c1ea       collisioncodegen_makeCylinder$dtor$0 000000018005d1ea f   collisioncodegen_api.obj
 0001:0005c207       collisioncodegen_makeCapsule$dtor$0 000000018005d207 f   collisioncodegen_api.obj
 0001:0005c224       collisioncodegen_makeMesh$dtor$0 000000018005d224 f   collisioncodegen_api.obj
 0001:0005c241       collisioncodegen_copyGeometry$dtor$0 000000018005d241 f   collisioncodegen_api.obj
 0001:0005c25e       collisioncodegen_getType$dtor$0 000000018005d25e f   collisioncodegen_api.obj
 0001:0005c280       ?catch$0@?0???$_Emplace_reallocate@AEBU_ccd_vec3_t@@@?$vector@U_ccd_vec3_t@@V?$allocator@U_ccd_vec3_t@@@std@@@std@@QEAAPEAU_ccd_vec3_t@@QEAU2@AEBU2@@Z@4HA 000000018005d280 f   collisioncodegen_api.obj
 0001:0005c28d       __catch$??$_Emplace_reallocate@AEBU_ccd_vec3_t@@@?$vector@U_ccd_vec3_t@@V?$allocator@U_ccd_vec3_t@@@std@@@std@@QEAAPEAU_ccd_vec3_t@@QEAU2@AEBU2@@Z$0 000000018005d28d f   collisioncodegen_api.obj
 0001:0005c2d0       ?dtor$0@?0???$_Uninitialized_copy@PEAU_ccd_vec3_t@@V?$allocator@U_ccd_vec3_t@@@std@@@std@@YAPEAU_ccd_vec3_t@@QEAU1@0PEAU1@AEAV?$allocator@U_ccd_vec3_t@@@0@@Z@4HA 000000018005d2d0 f   collisioncodegen_api.obj
 0001:0005c2f0       ?dtor$0@?0???$_Uninitialized_copy@PEAU_idx_vec3_t@shared_robotics@@V?$allocator@U_idx_vec3_t@shared_robotics@@@std@@@std@@YAPEAU_idx_vec3_t@shared_robotics@@QEAU12@0PEAU12@AEAV?$allocator@U_idx_vec3_t@shared_robotics@@@0@@Z@4HA 000000018005d2f0 f   collisioncodegen_api.obj
 0001:0005c310       ?dtor$0@?0???$_Uninitialized_copy@PEAV?$vector@_KV?$allocator@_K@std@@@std@@V?$allocator@V?$vector@_KV?$allocator@_K@std@@@std@@@2@@std@@YAPEAV?$vector@_KV?$allocator@_K@std@@@0@QEAV10@0PEAV10@AEAV?$allocator@V?$vector@_KV?$allocator@_K@std@@@std@@@0@@Z@4HA 000000018005d310 f   collisioncodegen_api.obj
 0001:0005c330       ?dtor$0@?0???$_Uninitialized_copy@PEA_KV?$allocator@_K@std@@@std@@YAPEA_KQEA_K0PEA_KAEAV?$allocator@_K@0@@Z@4HA 000000018005d330 f   collisioncodegen_api.obj
 0001:0005c350       ?dtor$0@?0???$_Uninitialized_move@PEAU_ccd_vec3_t@@V?$allocator@U_ccd_vec3_t@@@std@@@std@@YAPEAU_ccd_vec3_t@@QEAU1@0PEAU1@AEAV?$allocator@U_ccd_vec3_t@@@0@@Z@4HA 000000018005d350 f   collisioncodegen_api.obj
 0001:0005c370       ?dtor$0@?0???0?$basic_string@DU?$char_traits@D@std@@V?$allocator@D@2@@std@@QEAA@QEBD@Z@4HA 000000018005d370 f   collisioncodegen_api.obj
 0001:0005c390       ?dtor$0@?0???0?$vector@U_ccd_vec3_t@@V?$allocator@U_ccd_vec3_t@@@std@@@std@@QEAA@AEBV01@@Z@4HA 000000018005d390 f   collisioncodegen_api.obj
 0001:0005c3b0       ?dtor$0@?0???0?$vector@U_idx_vec3_t@shared_robotics@@V?$allocator@U_idx_vec3_t@shared_robotics@@@std@@@std@@QEAA@AEBV01@@Z@4HA 000000018005d3b0 f   collisioncodegen_api.obj
 0001:0005c3d0       ?dtor$0@?0???0?$vector@V?$vector@_KV?$allocator@_K@std@@@std@@V?$allocator@V?$vector@_KV?$allocator@_K@std@@@std@@@2@@std@@QEAA@AEBV01@@Z@4HA 000000018005d3d0 f   collisioncodegen_api.obj
 0001:0005c3f0       ?dtor$0@?0???0?$vector@_KV?$allocator@_K@std@@@std@@QEAA@AEBV01@@Z@4HA 000000018005d3f0 f   collisioncodegen_api.obj
 0001:0005c410       ?dtor$0@?0???0CollisionGeometry@shared_robotics@@QEAA@AEBV01@@Z@4HA 000000018005d410 f   collisioncodegen_api.obj
 0001:0005c430       ?dtor$1@?0???0CollisionGeometry@shared_robotics@@QEAA@AEBV01@@Z@4HA 000000018005d430 f   collisioncodegen_api.obj
 0001:0005c450       ?dtor$0@?0???0CollisionGeometry@shared_robotics@@QEAA@N@Z@4HA 000000018005d450 f   collisioncodegen_api.obj
 0001:0005c470       ?dtor$1@?0???0CollisionGeometry@shared_robotics@@QEAA@N@Z@4HA 000000018005d470 f   collisioncodegen_api.obj
 0001:0005c490       ?dtor$2@?0???0CollisionGeometry@shared_robotics@@QEAA@N@Z@4HA 000000018005d490 f   collisioncodegen_api.obj
 0001:0005c4b0       ?dtor$0@?0???0CollisionGeometry@shared_robotics@@QEAA@NN@Z@4HA 000000018005d4b0 f   collisioncodegen_api.obj
 0001:0005c4d0       ?dtor$1@?0???0CollisionGeometry@shared_robotics@@QEAA@NN@Z@4HA 000000018005d4d0 f   collisioncodegen_api.obj
 0001:0005c4f0       ?dtor$2@?0???0CollisionGeometry@shared_robotics@@QEAA@NN@Z@4HA 000000018005d4f0 f   collisioncodegen_api.obj
 0001:0005c510       ?dtor$0@?0???0CollisionGeometry@shared_robotics@@QEAA@NNN@Z@4HA 000000018005d510 f   collisioncodegen_api.obj
 0001:0005c530       ?dtor$1@?0???0CollisionGeometry@shared_robotics@@QEAA@NNN@Z@4HA 000000018005d530 f   collisioncodegen_api.obj
 0001:0005c550       ?dtor$2@?0???0CollisionGeometry@shared_robotics@@QEAA@NNN@Z@4HA 000000018005d550 f   collisioncodegen_api.obj
 0001:0005c570       ?dtor$0@?0???0CollisionGeometry@shared_robotics@@QEAA@PEANH_N@Z@4HA 000000018005d570 f   collisioncodegen_api.obj
 0001:0005c590       ?dtor$1@?0???0CollisionGeometry@shared_robotics@@QEAA@PEANH_N@Z@4HA 000000018005d590 f   collisioncodegen_api.obj
 0001:0005c5b0       ?dtor$2@?0???0CollisionGeometry@shared_robotics@@QEAA@PEANH_N@Z@4HA 000000018005d5b0 f   collisioncodegen_api.obj
 0001:0005c5cc       ?fin$0@?0??dllmain_crt_process_attach@@YAHQEAUHINSTANCE__@@QEAX@Z@4HA 000000018005d5cc f   MSVCRT:dll_dllmain.obj
 0001:0005c5e3       ?fin$0@?0??dllmain_crt_process_detach@@YAH_N@Z@4HA 000000018005d5e3 f   MSVCRT:dll_dllmain.obj
 0001:0005c5fc       ?fin$1@?0??dllmain_crt_process_detach@@YAH_N@Z@4HA 000000018005d5fc f   MSVCRT:dll_dllmain.obj
 0001:0005c610       ?filt$0@?0??dllmain_dispatch@@YAHQEAUHINSTANCE__@@KQEAX@Z@4HA 000000018005d610 f   MSVCRT:dll_dllmain.obj
 0001:0005c646       __scrt_is_nonwritable_in_current_image$filt$0 000000018005d646 f   MSVCRT:utility.obj
 0002:000006d0       ?c2_decisionTxtEndIdx@?1??mdl_setup_runtime_resources_c2_Modele_3D@@9@9 000000018005e6d0     c2_Modele_3D.obj
 0002:000006d4       ?c2_decisionTxtStartIdx@?1??mdl_setup_runtime_resources_c2_Modele_3D@@9@9 000000018005e6d4     c2_Modele_3D.obj
 0002:00000860       $SG41002                   000000018005e860     collisioncodegen_CollisionGeometry.obj
 0002:0000087a       ?_Fake_alloc@std@@3U_Fake_allocator@1@B 000000018005e87a     collisioncodegen_CollisionGeometry.obj
 0002:00000920       ?_Fake_alloc@std@@3U_Fake_allocator@1@B 000000018005e920     collisioncodegen_api.obj
 0002:0000097b       ?_Fake_alloc@std@@3U_Fake_allocator@1@B 000000018005e97b     collisioncodegen_ccdExtensions.obj
 0002:0000097c       ?_Fake_alloc@std@@3U_Fake_allocator@1@B 000000018005e97c     collisioncodegen_checkCollision.obj
 0002:00000990       GS_ExceptionPointers       000000018005e990     MSVCRT:gs_report.obj
 0002:00001420       $unwind$load_Modele_3D_optimization_info 000000018005f420     Modele_3D_sfun.obj
 0002:00001428       $unwind$unload_Modele_3D_optimization_info 000000018005f428     Modele_3D_sfun.obj
 0002:00001430       $unwind$sf_Modele_3D_method_dispatcher 000000018005f430     Modele_3D_sfun.obj
 0002:00001438       $unwind$sf_Modele_3D_process_check_sum_call 000000018005f438     Modele_3D_sfun.obj
 0002:00001448       $unwind$sf_Modele_3D_get_eml_resolved_functions_info 000000018005f448     Modele_3D_sfun.obj
 0002:00001458       $unwind$sf_Modele_3D_third_party_uses_info 000000018005f458     Modele_3D_sfun.obj
 0002:00001468       $unwind$sf_Modele_3D_jit_fallback_info 000000018005f468     Modele_3D_sfun.obj
 0002:00001478       $unwind$sf_Modele_3D_get_post_codegen_info 000000018005f478     Modele_3D_sfun.obj
 0002:00001488       $unwind$sf_Modele_3D_updateBuildInfo_args_info 000000018005f488     Modele_3D_sfun.obj
 0002:00001498       $unwind$sf_c2_Modele_3D_get_eml_resolved_functions_info 000000018005f498     c2_Modele_3D.obj
 0002:000014a0       $unwind$sf_c2_Modele_3D_get_check_sum 000000018005f4a0     c2_Modele_3D.obj
 0002:000014a8       $unwind$c2_Modele_3D_method_dispatcher 000000018005f4a8     c2_Modele_3D.obj
 0002:000014b0       $unwind$initialize_c2_Modele_3D 000000018005f4b0     c2_Modele_3D.obj
 0002:000014b8       $unwind$mdl_start_c2_Modele_3D 000000018005f4b8     c2_Modele_3D.obj
 0002:000014c0       $unwind$mdl_setup_runtime_resources_c2_Modele_3D 000000018005f4c0     c2_Modele_3D.obj
 0002:000014c8       $unwind$mdl_cleanup_runtime_resources_c2_Modele_3D 000000018005f4c8     c2_Modele_3D.obj
 0002:000014d0       $unwind$enable_c2_Modele_3D 000000018005f4d0     c2_Modele_3D.obj
 0002:000014d8       $unwind$disable_c2_Modele_3D 000000018005f4d8     c2_Modele_3D.obj
 0002:000014e0       $unwind$sf_gateway_c2_Modele_3D 000000018005f4e0     c2_Modele_3D.obj
 0002:000014f4       $unwind$get_sim_state_c2_Modele_3D 000000018005f4f4     c2_Modele_3D.obj
 0002:000014fc       $unwind$set_sim_state_c2_Modele_3D 000000018005f4fc     c2_Modele_3D.obj
 0002:0000150c       $unwind$c2_rigidBody_rigidBody 000000018005f50c     c2_Modele_3D.obj
 0002:00001520       $unwind$c2_rigidBodyJoint_set_MotionSubspace 000000018005f520     c2_Modele_3D.obj
 0002:00001534       $unwind$c2_CollisionSet_CollisionSet 000000018005f534     c2_Modele_3D.obj
 0002:00001548       $unwind$c2_RigidBodyTree_initVisualizationInfo 000000018005f548     c2_Modele_3D.obj
 0002:0000155c       $unwind$c2_rand            000000018005f55c     c2_Modele_3D.obj
 0002:00001564       $unwind$c2_RigidBodyTree_RigidBodyTree 000000018005f564     c2_Modele_3D.obj
 0002:00001578       $unwind$c2_rigidBodyJoint_rigidBodyJoint 000000018005f578     c2_Modele_3D.obj
 0002:0000158c       $unwind$c2_RigidBody_RigidBody 000000018005f58c     c2_Modele_3D.obj
 0002:000015a0       $unwind$c2_b_rigidBodyJoint_rigidBodyJoint 000000018005f5a0     c2_Modele_3D.obj
 0002:000015b4       $unwind$c2_b_rigidBody_rigidBody 000000018005f5b4     c2_Modele_3D.obj
 0002:000015c8       $unwind$c2_c_rigidBodyJoint_rigidBodyJoint 000000018005f5c8     c2_Modele_3D.obj
 0002:000015dc       $unwind$c2_d_rigidBodyJoint_rigidBodyJoint 000000018005f5dc     c2_Modele_3D.obj
 0002:000015f0       $unwind$c2_rigidBodyJoint_set_PositionLimits 000000018005f5f0     c2_Modele_3D.obj
 0002:00001604       $unwind$c2_validateattributes 000000018005f604     c2_Modele_3D.obj
 0002:0000160c       $unwind$c2_any             000000018005f60c     c2_Modele_3D.obj
 0002:00001614       $unwind$c2_warning         000000018005f614     c2_Modele_3D.obj
 0002:0000161c       $unwind$c2_rigidBodyJoint_resetHomePosition 000000018005f61c     c2_Modele_3D.obj
 0002:0000162c       $unwind$c2_all             000000018005f62c     c2_Modele_3D.obj
 0002:00001634       $unwind$c2_b_rigidBodyJoint_set_PositionLimits 000000018005f634     c2_Modele_3D.obj
 0002:00001648       $unwind$c2_rigidBody_set_Joint 000000018005f648     c2_Modele_3D.obj
 0002:00001650       $unwind$c2_rigidBodyJoint_copy 000000018005f650     c2_Modele_3D.obj
 0002:00001664       $unwind$c2_e_rigidBodyJoint_rigidBodyJoint 000000018005f664     c2_Modele_3D.obj
 0002:00001678       $unwind$c2_get_match       000000018005f678     c2_Modele_3D.obj
 0002:00001680       $unwind$c2_strcmp          000000018005f680     c2_Modele_3D.obj
 0002:00001688       $unwind$c2_b_warning       000000018005f688     c2_Modele_3D.obj
 0002:00001690       $unwind$c2_rigidBodyTree_addBody 000000018005f690     c2_Modele_3D.obj
 0002:000016a4       $unwind$c2_b_strcmp        000000018005f6a4     c2_Modele_3D.obj
 0002:000016ac       $unwind$c2_RigidBodyTree_validateInputBodyName 000000018005f6ac     c2_Modele_3D.obj
 0002:000016c0       $unwind$c2_RigidBodyTree_findBodyIndexByJointName 000000018005f6c0     c2_Modele_3D.obj
 0002:000016d4       $unwind$c2_RigidBody_copy  000000018005f6d4     c2_Modele_3D.obj
 0002:000016e8       $unwind$c2_b_rigidBodyTree_addBody 000000018005f6e8     c2_Modele_3D.obj
 0002:000016fc       $unwind$c2_b_RigidBodyTree_validateInputBodyName 000000018005f6fc     c2_Modele_3D.obj
 0002:00001710       $unwind$c2_rigidBodyTree_homeConfiguration 000000018005f710     c2_Modele_3D.obj
 0002:00001724       $unwind$c2_assertValidSizeArg 000000018005f724     c2_Modele_3D.obj
 0002:0000172c       $unwind$c2_rigidBodyTree_getTransform 000000018005f72c     c2_Modele_3D.obj
 0002:00001740       $unwind$c2_RigidBodyTree_validateConfiguration 000000018005f740     c2_Modele_3D.obj
 0002:00001754       $unwind$c2_RigidBodyTree_forwardKinematics 000000018005f754     c2_Modele_3D.obj
 0002:00001774       $unwind$c2_indexShapeCheck 000000018005f774     c2_Modele_3D.obj
 0002:0000177c       $unwind$c2_rigidBodyJoint_get_JointAxis 000000018005f77c     c2_Modele_3D.obj
 0002:00001790       $unwind$c2_sumColumnB      000000018005f790     c2_Modele_3D.obj
 0002:00001798       $unwind$c2_cat             000000018005f798     c2_Modele_3D.obj
 0002:000017a8       $unwind$c2_quat2tform      000000018005f7a8     c2_Modele_3D.obj
 0002:000017c8       $unwind$c2_b_sumColumnB    000000018005f7c8     c2_Modele_3D.obj
 0002:000017d0       $unwind$c2_rotm2eul        000000018005f7d0     c2_Modele_3D.obj
 0002:000017e0       $unwind$c2_function_handle_parenReference 000000018005f7e0     c2_Modele_3D.obj
 0002:000017e8       $unwind$c2_expand_atan2    000000018005f7e8     c2_Modele_3D.obj
 0002:000017f8       $unwind$c2_b_RigidBodyTree_initVisualizationInfo 000000018005f7f8     c2_Modele_3D.obj
 0002:0000180c       $unwind$c2_g_handle_matlabCodegenDestructor 000000018005f80c     c2_Modele_3D.obj
 0002:00001820       $unwind$c2_emlrt_marshallIn 000000018005f820     c2_Modele_3D.obj
 0002:00001828       $unwind$c2_b_emlrt_marshallIn 000000018005f828     c2_Modele_3D.obj
 0002:00001830       $unwind$c2_c_emlrt_marshallIn 000000018005f830     c2_Modele_3D.obj
 0002:00001838       $unwind$c2_d_emlrt_marshallIn 000000018005f838     c2_Modele_3D.obj
 0002:00001840       $unwind$c2_e_emlrt_marshallIn 000000018005f840     c2_Modele_3D.obj
 0002:00001848       $unwind$c2_f_emlrt_marshallIn 000000018005f848     c2_Modele_3D.obj
 0002:00001858       $unwind$c2_g_emlrt_marshallIn 000000018005f858     c2_Modele_3D.obj
 0002:00001860       $unwind$c2_h_emlrt_marshallIn 000000018005f860     c2_Modele_3D.obj
 0002:00001868       $unwind$c2_feval           000000018005f868     c2_Modele_3D.obj
 0002:00001870       $unwind$c2_b_feval         000000018005f870     c2_Modele_3D.obj
 0002:00001878       $unwind$c2_c_feval         000000018005f878     c2_Modele_3D.obj
 0002:00001880       $unwind$c2_d_feval         000000018005f880     c2_Modele_3D.obj
 0002:00001888       $unwind$c2_b_CharacterVector_setVector 000000018005f888     c2_Modele_3D.obj
 0002:00001898       $unwind$c2_plus            000000018005f898     c2_Modele_3D.obj
 0002:000018a8       $unwind$c2_array_robotics_manip_internal_C 000000018005f8a8     c2_Modele_3D.obj
 0002:000018b0       $unwind$c2_array_boolean_T_2D_SetSize 000000018005f8b0     c2_Modele_3D.obj
 0002:000018b8       $unwind$c2_array_sb0EDBCsZRrtH46t9p8H3X_2D 000000018005f8b8     c2_Modele_3D.obj
 0002:000018c0       $unwind$c2_array_s_dcxMVnjsLRtcxNw5c8LFlF_ 000000018005f8c0     c2_Modele_3D.obj
 0002:000018c8       $unwind$c2_b_array_s_dcxMVnjsLRtcxNw5c8LFlF_ 000000018005f8c8     c2_Modele_3D.obj
 0002:000018d0       $unwind$c2_array_real_T_SetSize 000000018005f8d0     c2_Modele_3D.obj
 0002:000018d8       $unwind$c2_array_int32_T_2D_SetSize 000000018005f8d8     c2_Modele_3D.obj
 0002:000018e0       $unwind$c2_array_real_T_2D_SetSize 000000018005f8e0     c2_Modele_3D.obj
 0002:000018e8       $unwind$c2_b_array_robotics_manip_internal_C 000000018005f8e8     c2_Modele_3D.obj
 0002:000018f0       $unwind$c2_c_array_robotics_manip_internal_C 000000018005f8f0     c2_Modele_3D.obj
 0002:000018f8       $unwind$c2_array_robotics_manip_internal_R 000000018005f8f8     c2_Modele_3D.obj
 0002:00001900       $unwind$c2_b_array_robotics_manip_internal_R 000000018005f900     c2_Modele_3D.obj
 0002:00001908       $unwind$c2_c_array_robotics_manip_internal_R 000000018005f908     c2_Modele_3D.obj
 0002:00001910       $unwind$c2_array_rigidBodyTree_Constructor 000000018005f910     c2_Modele_3D.obj
 0002:00001918       $unwind$c2_d_array_robotics_manip_internal_R 000000018005f918     c2_Modele_3D.obj
 0002:00001920       $unwind$c2_e_array_robotics_manip_internal_C 000000018005f920     c2_Modele_3D.obj
 0002:00001928       $unwind$c2_f_array_robotics_manip_internal_C 000000018005f928     c2_Modele_3D.obj
 0002:00001930       $unwind$c2_g_array_robotics_manip_internal_C 000000018005f930     c2_Modele_3D.obj
 0002:00001938       $unwind$c2_h_array_robotics_manip_internal_C 000000018005f938     c2_Modele_3D.obj
 0002:00001940       $unwind$c2_e_array_robotics_manip_internal_R 000000018005f940     c2_Modele_3D.obj
 0002:00001948       $unwind$c2_f_array_robotics_manip_internal_R 000000018005f948     c2_Modele_3D.obj
 0002:00001950       $unwind$c2_g_array_robotics_manip_internal_R 000000018005f950     c2_Modele_3D.obj
 0002:00001958       $unwind$c2_i_array_robotics_manip_internal_C 000000018005f958     c2_Modele_3D.obj
 0002:00001960       $unwind$c2_h_array_robotics_manip_internal_R 000000018005f960     c2_Modele_3D.obj
 0002:00001968       $unwind$c2_array_rigidBodyTree_Destructor 000000018005f968     c2_Modele_3D.obj
 0002:00001970       $unwind$c2_d_array_s_dcxMVnjsLRtcxNw5c8LFlF_ 000000018005f970     c2_Modele_3D.obj
 0002:00001978       $unwind$c2_c_array_sb0EDBCsZRrtH46t9p8H3X_2D 000000018005f978     c2_Modele_3D.obj
 0002:00001980       $unwind$c2_array_boolean_T_2D_Destructor 000000018005f980     c2_Modele_3D.obj
 0002:00001988       $unwind$c2_array_real_T_Destructor 000000018005f988     c2_Modele_3D.obj
 0002:00001990       $unwind$c2_array_int32_T_2D_Destructor 000000018005f990     c2_Modele_3D.obj
 0002:00001998       $unwind$c2_array_real_T_2D_Destructor 000000018005f998     c2_Modele_3D.obj
 0002:000019a0       $unwind$init_simulink_io_address 000000018005f9a0     c2_Modele_3D.obj
 0002:000019a8       $unwind$sf_c2_Modele_3D_third_party_uses_info 000000018005f9a8     c2_Modele_3D.obj
 0002:000019b0       $unwind$sf_c2_Modele_3D_jit_fallback_info 000000018005f9b0     c2_Modele_3D.obj
 0002:000019c0       $unwind$sf_c2_Modele_3D_updateBuildInfo_args_info 000000018005f9c0     c2_Modele_3D.obj
 0002:000019c8       $unwind$sf_get_sim_state_info_c2_Modele_3D 000000018005f9c8     c2_Modele_3D.obj
 0002:000019d0       $unwind$sf_opaque_initialize_c2_Modele_3D 000000018005f9d0     c2_Modele_3D.obj
 0002:000019d8       $unwind$sf_opaque_enable_c2_Modele_3D 000000018005f9d8     c2_Modele_3D.obj
 0002:000019e0       $unwind$sf_opaque_disable_c2_Modele_3D 000000018005f9e0     c2_Modele_3D.obj
 0002:000019e8       $unwind$sf_opaque_gateway_c2_Modele_3D 000000018005f9e8     c2_Modele_3D.obj
 0002:000019f0       $unwind$sf_opaque_get_sim_state_c2_Modele_3D 000000018005f9f0     c2_Modele_3D.obj
 0002:000019f8       $unwind$sf_opaque_set_sim_state_c2_Modele_3D 000000018005f9f8     c2_Modele_3D.obj
 0002:00001a00       $unwind$sf_opaque_cleanup_runtime_resources_c2_Modele_3D 000000018005fa00     c2_Modele_3D.obj
 0002:00001a08       $unwind$sf_opaque_mdl_start_c2_Modele_3D 000000018005fa08     c2_Modele_3D.obj
 0002:00001a10       $unwind$sf_opaque_mdl_terminate_c2_Modele_3D 000000018005fa10     c2_Modele_3D.obj
 0002:00001a18       $unwind$mdlProcessParameters_c2_Modele_3D 000000018005fa18     c2_Modele_3D.obj
 0002:00001a20       $unwind$sf_c2_Modele_3D_get_post_codegen_info 000000018005fa20     c2_Modele_3D.obj
 0002:00001a30       $unwind$mdlSetWorkWidths_c2_Modele_3D 000000018005fa30     c2_Modele_3D.obj
 0002:00001a38       $unwind$mdlRTW_c2_Modele_3D 000000018005fa38     c2_Modele_3D.obj
 0002:00001a40       $unwind$mdlSetupRuntimeResources_c2_Modele_3D 000000018005fa40     c2_Modele_3D.obj
 0002:00001a48       $unwind$_vsnprintf_l       000000018005fa48     Modele_3D_sfun_registry.obj
 0002:00001a50       $unwind$_vsprintf_l        000000018005fa50     Modele_3D_sfun_registry.obj
 0002:00001a58       $unwind$sprintf            000000018005fa58     Modele_3D_sfun_registry.obj
 0002:00001a60       $unwind$mexFunction        000000018005fa60     Modele_3D_sfun_registry.obj
 0002:00001a70       $unwind$_ssSetInputPortDirectFeedThroughFcn 000000018005fa70     Modele_3D_sfun_registry.obj
 0002:00001a80       $unwind$_ssSetRWorkValueFcn 000000018005fa80     Modele_3D_sfun_registry.obj
 0002:00001a88       $unwind$_ssGetRWorkValueFcn 000000018005fa88     Modele_3D_sfun_registry.obj
 0002:00001a90       $unwind$_ssSetIWorkValueFcn 000000018005fa90     Modele_3D_sfun_registry.obj
 0002:00001a98       $unwind$_ssGetIWorkValueFcn 000000018005fa98     Modele_3D_sfun_registry.obj
 0002:00001aa0       $unwind$_ssSetPWorkValueFcn 000000018005faa0     Modele_3D_sfun_registry.obj
 0002:00001aa8       $unwind$_ssGetPWorkValueFcn 000000018005faa8     Modele_3D_sfun_registry.obj
 0002:00001ab0       $unwind$_ssGetInputPortSignalFcn 000000018005fab0     Modele_3D_sfun_registry.obj
 0002:00001ac0       $unwind$_ssGetInputPortBufferDstPortFcn 000000018005fac0     Modele_3D_sfun_registry.obj
 0002:00001ac8       $unwind$_ssGetInputPortSignalPtrsFcn 000000018005fac8     Modele_3D_sfun_registry.obj
 0002:00001ad8       $unwind$ssGetParameterTuningCompliance 000000018005fad8     Modele_3D_sfun_registry.obj
 0002:00001ae0       $unwind$_ssReadInputStringFcn 000000018005fae0     Modele_3D_sfun_registry.obj
 0002:00001ae8       $unwind$ssGetDTypeIdFromMxArray 000000018005fae8     Modele_3D_sfun_registry.obj
 0002:00001af0       $unwind$ssWriteRTWMx2dMatParam 000000018005faf0     Modele_3D_sfun_registry.obj
 0002:00001af8       $unwind$ssWriteRTWMxVectParam 000000018005faf8     Modele_3D_sfun_registry.obj
 0002:00001b00       $unwind$ssWriteRTWParameters 000000018005fb00     Modele_3D_sfun_registry.obj
 0002:00001b08       $unwind$ssWriteRTWParamSettings 000000018005fb08     Modele_3D_sfun_registry.obj
 0002:00001b10       $unwind$ssWriteRTWStr      000000018005fb10     Modele_3D_sfun_registry.obj
 0002:00001b18       $unwind$ssWriteRTWWorkVect 000000018005fb18     Modele_3D_sfun_registry.obj
 0002:00001b2c       $unwind$ssWarning          000000018005fb2c     Modele_3D_sfun_registry.obj
 0002:00001b40       $unwind$ssGetRootSS        000000018005fb40     Modele_3D_sfun_registry.obj
 0002:00001b48       $unwind$ssGetParentSS      000000018005fb48     Modele_3D_sfun_registry.obj
 0002:00001b50       $unwind$ssWriteRTWNameValuePair 000000018005fb50     Modele_3D_sfun_registry.obj
 0002:00001b58       $unwind$_ssSetInputPortMatrixDimensions 000000018005fb58     Modele_3D_sfun_registry.obj
 0002:00001b64       $unwind$_ssSetOutputPortMatrixDimensions 000000018005fb64     Modele_3D_sfun_registry.obj
 0002:00001b70       $unwind$_ssSetInputPortVectorDimension 000000018005fb70     Modele_3D_sfun_registry.obj
 0002:00001b7c       $unwind$_ssSetOutputPortVectorDimension 000000018005fb7c     Modele_3D_sfun_registry.obj
 0002:00001b88       $unwind$ssIsRunTimeParamTunable 000000018005fb88     Modele_3D_sfun_registry.obj
 0002:00001b90       $unwind$ssGetSFuncBlockHandle 000000018005fb90     Modele_3D_sfun_registry.obj
 0002:00001b98       $unwind$_ssGetCallSystemNumFcnCallDestinations 000000018005fb98     Modele_3D_sfun_registry.obj
 0002:00001ba0       $unwind$_ssGetCurrentInputPortWidth 000000018005fba0     Modele_3D_sfun_registry.obj
 0002:00001ba8       $unwind$_ssGetCurrentOutputPortWidth 000000018005fba8     Modele_3D_sfun_registry.obj
 0002:00001bb0       $unwind$ssGetIsZeroCrossControlDisabled 000000018005fbb0     Modele_3D_sfun_registry.obj
 0002:00001bb8       $unwind$ssSetIsInputPortUsedForContZcSignal 000000018005fbb8     Modele_3D_sfun_registry.obj
 0002:00001bc0       $unwind$ssSetZcSignalIsZcElementDisc 000000018005fbc0     Modele_3D_sfun_registry.obj
 0002:00001bd0       $unwind$ssSetZcSignalName  000000018005fbd0     Modele_3D_sfun_registry.obj
 0002:00001bd8       $unwind$ssSetZcSignalWidth 000000018005fbd8     Modele_3D_sfun_registry.obj
 0002:00001be0       $unwind$ssSetZcSignalZcEventType 000000018005fbe0     Modele_3D_sfun_registry.obj
 0002:00001be8       $unwind$ssSetZcSignalType  000000018005fbe8     Modele_3D_sfun_registry.obj
 0002:00001bf0       $unwind$ssSetZcSignalZcTol 000000018005fbf0     Modele_3D_sfun_registry.obj
 0002:00001bf8       $unwind$ssSetZcSignalNeedsEventNotification 000000018005fbf8     Modele_3D_sfun_registry.obj
 0002:00001c00       $unwind$ssCreateAndAddZcSignalInfo 000000018005fc00     Modele_3D_sfun_registry.obj
 0002:00001c08       $unwind$ssCloneAndAddZcSignalInfo 000000018005fc08     Modele_3D_sfun_registry.obj
 0002:00001c10       $unwind$ssGetNumZcSignals  000000018005fc10     Modele_3D_sfun_registry.obj
 0002:00001c18       $unwind$ssGetZcSignalVector 000000018005fc18     Modele_3D_sfun_registry.obj
 0002:00001c20       $unwind$ssGetZcSignalName  000000018005fc20     Modele_3D_sfun_registry.obj
 0002:00001c28       $unwind$ssGetZcSignalWidth 000000018005fc28     Modele_3D_sfun_registry.obj
 0002:00001c30       $unwind$ssGetZcSignalZcEventType 000000018005fc30     Modele_3D_sfun_registry.obj
 0002:00001c38       $unwind$ssGetZcSignalZcEvents 000000018005fc38     Modele_3D_sfun_registry.obj
 0002:00001c40       $unwind$ssGetZcSignalType  000000018005fc40     Modele_3D_sfun_registry.obj
 0002:00001c48       $unwind$ssGetZcSignalZcTol 000000018005fc48     Modele_3D_sfun_registry.obj
 0002:00001c50       $unwind$ssGetZcSignalNeedsEventNotification 000000018005fc50     Modele_3D_sfun_registry.obj
 0002:00001c58       $unwind$ssGetZcSignalIsZcElementDisc 000000018005fc58     Modele_3D_sfun_registry.obj
 0002:00001c68       $unwind$ssGetIsInputPortElementContinuous 000000018005fc68     Modele_3D_sfun_registry.obj
 0002:00001c78       $unwind$_ssGetAbsTol       000000018005fc78     Modele_3D_sfun_registry.obj
 0002:00001c80       $unwind$_ssSetInputPortReusableFcn 000000018005fc80     Modele_3D_sfun_registry.obj
 0002:00001c88       $unwind$_ssSetOutputPortReusableFcn 000000018005fc88     Modele_3D_sfun_registry.obj
 0002:00001c90       $unwind$_ssSetSymbolicDimsSupport 000000018005fc90     Modele_3D_sfun_registry.obj
 0002:00001c98       $unwind$_ssRegisterSymbolicDimsExpr 000000018005fc98     Modele_3D_sfun_registry.obj
 0002:00001ca0       $unwind$_ssRegisterSymbolicDimsMATLABExpr 000000018005fca0     Modele_3D_sfun_registry.obj
 0002:00001ca8       $unwind$_ssRegisterSymbolicDims 000000018005fca8     Modele_3D_sfun_registry.obj
 0002:00001cb0       $unwind$_ssRegisterSymbolicDimsString 000000018005fcb0     Modele_3D_sfun_registry.obj
 0002:00001cb8       $unwind$_ssRegisterSymbolicDimsIntValue 000000018005fcb8     Modele_3D_sfun_registry.obj
 0002:00001cc0       $unwind$_ssRegisterSymbolicEqualRelation 000000018005fcc0     Modele_3D_sfun_registry.obj
 0002:00001cc8       $unwind$_ssRegisterSymbolicEqualValue 000000018005fcc8     Modele_3D_sfun_registry.obj
 0002:00001cd0       $unwind$_ssAmendLeadingSymbolicDims 000000018005fcd0     Modele_3D_sfun_registry.obj
 0002:00001cd8       $unwind$_ssAmendTrailingSymbolicDims 000000018005fcd8     Modele_3D_sfun_registry.obj
 0002:00001ce0       $unwind$_ssRegisterSymbolicDimsPlus 000000018005fce0     Modele_3D_sfun_registry.obj
 0002:00001ce8       $unwind$_ssRegisterSymbolicDimsMinus 000000018005fce8     Modele_3D_sfun_registry.obj
 0002:00001cf0       $unwind$_ssRegisterSymbolicDimsMultiply 000000018005fcf0     Modele_3D_sfun_registry.obj
 0002:00001cf8       $unwind$_ssRegisterSymbolicDimsDivide 000000018005fcf8     Modele_3D_sfun_registry.obj
 0002:00001d00       $unwind$_ssGetNumSymbolicDims 000000018005fd00     Modele_3D_sfun_registry.obj
 0002:00001d08       $unwind$_ssGetSymbolicDim  000000018005fd08     Modele_3D_sfun_registry.obj
 0002:00001d10       $unwind$_ssSetInputPortSymbolicDimsId 000000018005fd10     Modele_3D_sfun_registry.obj
 0002:00001d18       $unwind$_ssGetCompInputPortSymbolicDimsId 000000018005fd18     Modele_3D_sfun_registry.obj
 0002:00001d20       $unwind$_ssSetCompInputPortSymbolicDimsId 000000018005fd20     Modele_3D_sfun_registry.obj
 0002:00001d28       $unwind$_ssSetOutputPortSymbolicDimsId 000000018005fd28     Modele_3D_sfun_registry.obj
 0002:00001d30       $unwind$_ssGetCompOutputPortSymbolicDimsId 000000018005fd30     Modele_3D_sfun_registry.obj
 0002:00001d38       $unwind$_ssSetCompOutputPortSymbolicDimsId 000000018005fd38     Modele_3D_sfun_registry.obj
 0002:00001d40       $unwind$_ssGetDWorkSymbolicDimsId 000000018005fd40     Modele_3D_sfun_registry.obj
 0002:00001d48       $unwind$_ssSetDWorkSymbolicDimsId 000000018005fd48     Modele_3D_sfun_registry.obj
 0002:00001d50       $unwind$_ssGetCompDWorkSymbolicDimsId 000000018005fd50     Modele_3D_sfun_registry.obj
 0002:00001d58       $unwind$_ssSetCompDWorkSymbolicDimsId 000000018005fd58     Modele_3D_sfun_registry.obj
 0002:00001d60       $unwind$_ssCreateSLCGStringBuffer 000000018005fd60     Modele_3D_sfun_registry.obj
 0002:00001d68       $unwind$_ssAddToSLCGStringBuffer 000000018005fd68     Modele_3D_sfun_registry.obj
 0002:00001d70       $unwind$_ssGetPointerContainedData 000000018005fd70     Modele_3D_sfun_registry.obj
 0002:00001d78       $unwind$_ssGetPointerContainedDataWidth 000000018005fd78     Modele_3D_sfun_registry.obj
 0002:00001d80       $unwind$_ssRegisterDynamicArrayDataTypeFcn 000000018005fd80     Modele_3D_sfun_registry.obj
 0002:00001d88       $unwind$_ssGetDynamicArrayContainedDataCurrentWidthFcn 000000018005fd88     Modele_3D_sfun_registry.obj
 0002:00001d90       $unwind$_ssGetDynamicArrayContainedDataFcn 000000018005fd90     Modele_3D_sfun_registry.obj
 0002:00001d98       $unwind$_ssGetInputPortDynamicArrayDataFcn 000000018005fd98     Modele_3D_sfun_registry.obj
 0002:00001da0       $unwind$_ssGetOutputPortDynamicArrayDataFcn 000000018005fda0     Modele_3D_sfun_registry.obj
 0002:00001da8       $unwind$_ssGetInputPortDynamicArrayContainedDataFcn 000000018005fda8     Modele_3D_sfun_registry.obj
 0002:00001db0       $unwind$_ssGetOutputPortDynamicArrayContainedDataFcn 000000018005fdb0     Modele_3D_sfun_registry.obj
 0002:00001db8       $unwind$_ssGetDynamicArrayDWorkContainedDataFcn 000000018005fdb8     Modele_3D_sfun_registry.obj
 0002:00001dc0       $unwind$sf_process_check_sum_call 000000018005fdc0     Modele_3D_sfun_registry.obj
 0002:00001dc8       $unwind$sf_process_get_third_party_uses_info_call 000000018005fdc8     Modele_3D_sfun_registry.obj
 0002:00001dd8       $unwind$sf_process_get_jit_fallback_info_call 000000018005fdd8     Modele_3D_sfun_registry.obj
 0002:00001de8       $unwind$sf_process_get_post_codegen_info_call 000000018005fde8     Modele_3D_sfun_registry.obj
 0002:00001df8       $unwind$sf_process_get_updateBuildInfo_args_info_call 000000018005fdf8     Modele_3D_sfun_registry.obj
 0002:00001e08       $unwind$sf_process_get_eml_resolved_functions_info_call 000000018005fe08     Modele_3D_sfun_registry.obj
 0002:00001e18       $unwind$sf_mex_unlock_call 000000018005fe18     Modele_3D_sfun_registry.obj
 0002:00001e28       $unwind$ProcessMexSfunctionCmdLineCall 000000018005fe28     Modele_3D_sfun_registry.obj
 0002:00001e30       $unwind$sf_machine_global_initializer_called 000000018005fe30     Modele_3D_sfun_registry.obj
 0002:00001e38       $unwind$sf_machine_global_method_dispatcher 000000018005fe38     Modele_3D_sfun_registry.obj
 0002:00001e40       $unwind$sf_machine_global_terminator 000000018005fe40     Modele_3D_sfun_registry.obj
 0002:00001e48       $unwind$sf_machine_global_initializer 000000018005fe48     Modele_3D_sfun_registry.obj
 0002:00001e50       $unwind$mdlGetSimState     000000018005fe50     Modele_3D_sfun_registry.obj
 0002:00001e58       $unwind$mdlSetSimState     000000018005fe58     Modele_3D_sfun_registry.obj
 0002:00001e60       $unwind$mdlSetWorkWidths   000000018005fe60     Modele_3D_sfun_registry.obj
 0002:00001e68       $unwind$mdlProcessParameters 000000018005fe68     Modele_3D_sfun_registry.obj
 0002:00001e70       $unwind$mdl_setup_runtime_resources_processing 000000018005fe70     Modele_3D_sfun_registry.obj
 0002:00001e78       $unwind$mdlSetupRuntimeResources 000000018005fe78     Modele_3D_sfun_registry.obj
 0002:00001e80       $unwind$mdl_cleanup_runtime_resources_processing 000000018005fe80     Modele_3D_sfun_registry.obj
 0002:00001e88       $unwind$mdlCleanupRuntimeResources 000000018005fe88     Modele_3D_sfun_registry.obj
 0002:00001e90       $unwind$mdl_start_processing 000000018005fe90     Modele_3D_sfun_registry.obj
 0002:00001e98       $unwind$mdlStart           000000018005fe98     Modele_3D_sfun_registry.obj
 0002:00001ea0       $unwind$mdl_terminate_processing 000000018005fea0     Modele_3D_sfun_registry.obj
 0002:00001ea8       $unwind$mdlTerminate       000000018005fea8     Modele_3D_sfun_registry.obj
 0002:00001eb0       $unwind$mdlInitializeSizes 000000018005feb0     Modele_3D_sfun_registry.obj
 0002:00001eb8       $unwind$mdlInitializeSampleTimes 000000018005feb8     Modele_3D_sfun_registry.obj
 0002:00001ec0       $unwind$mdl_outputs_continuous_legacy 000000018005fec0     Modele_3D_sfun_registry.obj
 0002:00001ec8       $unwind$mdl_outputs_processing 000000018005fec8     Modele_3D_sfun_registry.obj
 0002:00001ed0       $unwind$mdl_zeroCrossings_processing 000000018005fed0     Modele_3D_sfun_registry.obj
 0002:00001ed8       $unwind$mdlZeroCrossings   000000018005fed8     Modele_3D_sfun_registry.obj
 0002:00001ee0       $unwind$mdl_derivatives_processing 000000018005fee0     Modele_3D_sfun_registry.obj
 0002:00001ee8       $unwind$mdlDerivatives     000000018005fee8     Modele_3D_sfun_registry.obj
 0002:00001ef0       $unwind$mdl_initialize_conditions_processing 000000018005fef0     Modele_3D_sfun_registry.obj
 0002:00001ef8       $unwind$mdlInitializeConditions 000000018005fef8     Modele_3D_sfun_registry.obj
 0002:00001f00       $unwind$mdl_ext_mode_exec_processing 000000018005ff00     Modele_3D_sfun_registry.obj
 0002:00001f08       $unwind$mdlExtModeExec     000000018005ff08     Modele_3D_sfun_registry.obj
 0002:00001f10       $unwind$mdlRTW             000000018005ff10     Modele_3D_sfun_registry.obj
 0002:00001f18       $unwind$mdl_enable_processing 000000018005ff18     Modele_3D_sfun_registry.obj
 0002:00001f20       $unwind$mdlEnable          000000018005ff20     Modele_3D_sfun_registry.obj
 0002:00001f28       $unwind$mdl_disable_processing 000000018005ff28     Modele_3D_sfun_registry.obj
 0002:00001f30       $unwind$mdlDisable         000000018005ff30     Modele_3D_sfun_registry.obj
 0002:00001f38       $unwind$mdlOutputs         000000018005ff38     Modele_3D_sfun_registry.obj
 0002:00001f40       $unwind$mdl_update_processing 000000018005ff40     Modele_3D_sfun_registry.obj
 0002:00001f48       $unwind$mdlUpdate          000000018005ff48     Modele_3D_sfun_registry.obj
 0002:00001f50       $unwind$ProcessMexSfunctionEveryCall 000000018005ff50     Modele_3D_sfun_registry.obj
 0002:00001f58       $unwind$_RegNumInputPortsCB 000000018005ff58     Modele_3D_sfun_registry.obj
 0002:00001f60       $unwind$_RegNumOutputPortsCB 000000018005ff60     Modele_3D_sfun_registry.obj
 0002:00001f68       $unwind$_CreateSimStruct   000000018005ff68     Modele_3D_sfun_registry.obj
 0002:00001f70       $unwind$_ProcessMexSfunctionCmdLineCall 000000018005ff70     Modele_3D_sfun_registry.obj
 0002:00001f80       $unwind$ReportIndexOutOfBoundsError 000000018005ff80     Modele_3D_sfun_registry.obj
 0002:00001f90       $unwind$ccdSign            000000018005ff90     ccd_ccd.obj
 0002:00001f98       $unwind$ccdIsZero          000000018005ff98     ccd_ccd.obj
 0002:00001fa0       $unwind$ccdEq              000000018005ffa0     ccd_ccd.obj
 0002:00001fa8       $unwind$ccdVec3Eq          000000018005ffa8     ccd_ccd.obj
 0002:00001fb0       $unwind$ccdVec3Len2        000000018005ffb0     ccd_ccd.obj
 0002:00001fb8       $unwind$ccdVec3Copy        000000018005ffb8     ccd_ccd.obj
 0002:00001fc0       $unwind$ccdVec3Normalize   000000018005ffc0     ccd_ccd.obj
 0002:00001fc8       $unwind$ccdVec3Dot         000000018005ffc8     ccd_ccd.obj
 0002:00001fd0       $unwind$ccdSupportCopy     000000018005ffd0     ccd_ccd.obj
 0002:00001fd8       $unwind$ccdSimplexLast     000000018005ffd8     ccd_ccd.obj
 0002:00001fe0       $unwind$ccdSimplexAdd      000000018005ffe0     ccd_ccd.obj
 0002:00001fe8       $unwind$ccdSimplexSet      000000018005ffe8     ccd_ccd.obj
 0002:00001ff0       $unwind$ccdFirstDirDefault 000000018005fff0     ccd_ccd.obj
 0002:00001ff8       $unwind$__ccdSupport       000000018005fff8     ccd_ccd.obj
 0002:00002008       $unwind$ccdGJKIntersect    0000000180060008     ccd_ccd.obj
 0002:00002018       $unwind$__ccdGJK           0000000180060018     ccd_ccd.obj
 0002:00002028       $unwind$ccdGJKSeparate     0000000180060028     ccd_ccd.obj
 0002:00002030       $unwind$ccdGJKPenetration  0000000180060030     ccd_ccd.obj
 0002:00002038       $unwind$ccdPtDelEdge       0000000180060038     ccd_ccd.obj
 0002:00002040       $unwind$ccdPtDelFace       0000000180060040     ccd_ccd.obj
 0002:00002048       $unwind$__ccdGJKEPA        0000000180060048     ccd_ccd.obj
 0002:00002058       $unwind$doSimplex          0000000180060058     ccd_ccd.obj
 0002:00002060       $unwind$doSimplex2         0000000180060060     ccd_ccd.obj
 0002:00002070       $unwind$doSimplex3         0000000180060070     ccd_ccd.obj
 0002:00002080       $unwind$doSimplex4         0000000180060080     ccd_ccd.obj
 0002:00002090       $unwind$tripleCross        0000000180060090     ccd_ccd.obj
 0002:000020a0       $unwind$simplexToPolytope4 00000001800600a0     ccd_ccd.obj
 0002:000020b0       $unwind$simplexToPolytope3 00000001800600b0     ccd_ccd.obj
 0002:000020c0       $unwind$simplexToPolytope2 00000001800600c0     ccd_ccd.obj
 0002:000020d0       $unwind$expandPolytope     00000001800600d0     ccd_ccd.obj
 0002:000020e0       $unwind$nextSupport        00000001800600e0     ccd_ccd.obj
 0002:000020e8       $unwind$penEPAPosCmp       00000001800600e8     ccd_ccd.obj
 0002:000020f0       $unwind$penEPAPos          00000001800600f0     ccd_ccd.obj
 0002:000020f8       $unwind$ccdIsZero          00000001800600f8     ccd_mpr.obj
 0002:00002100       $unwind$ccdEq              0000000180060100     ccd_mpr.obj
 0002:00002108       $unwind$ccdVec3Eq          0000000180060108     ccd_mpr.obj
 0002:00002110       $unwind$ccdVec3Len2        0000000180060110     ccd_mpr.obj
 0002:00002118       $unwind$ccdVec3Copy        0000000180060118     ccd_mpr.obj
 0002:00002120       $unwind$ccdVec3Normalize   0000000180060120     ccd_mpr.obj
 0002:00002128       $unwind$ccdVec3Dot         0000000180060128     ccd_mpr.obj
 0002:00002130       $unwind$ccdSupportCopy     0000000180060130     ccd_mpr.obj
 0002:00002138       $unwind$ccdSimplexSet      0000000180060138     ccd_mpr.obj
 0002:00002140       $unwind$ccdSimplexSwap     0000000180060140     ccd_mpr.obj
 0002:00002150       $unwind$ccdMPRIntersect    0000000180060150     ccd_mpr.obj
 0002:00002160       $unwind$ccdMPRPenetration  0000000180060160     ccd_mpr.obj
 0002:00002170       $unwind$findOrigin         0000000180060170     ccd_mpr.obj
 0002:00002178       $unwind$discoverPortal     0000000180060178     ccd_mpr.obj
 0002:00002188       $unwind$refinePortal       0000000180060188     ccd_mpr.obj
 0002:00002198       $unwind$findPenetr         0000000180060198     ccd_mpr.obj
 0002:000021a8       $unwind$findPenetrTouch    00000001800601a8     ccd_mpr.obj
 0002:000021b0       $unwind$findPenetrSegment  00000001800601b0     ccd_mpr.obj
 0002:000021b8       $unwind$findPos            00000001800601b8     ccd_mpr.obj
 0002:000021c8       $unwind$expandPortal       00000001800601c8     ccd_mpr.obj
 0002:000021d8       $unwind$portalDir          00000001800601d8     ccd_mpr.obj
 0002:000021e8       $unwind$portalEncapsulesOrigin 00000001800601e8     ccd_mpr.obj
 0002:000021f0       $unwind$portalReachTolerance 00000001800601f0     ccd_mpr.obj
 0002:000021f8       $unwind$portalCanEncapsuleOrigin 00000001800601f8     ccd_mpr.obj
 0002:00002200       $unwind$_vfprintf_l        0000000180060200     ccd_polytope.obj
 0002:00002208       $unwind$fprintf            0000000180060208     ccd_polytope.obj
 0002:00002210       $unwind$ccdEq              0000000180060210     ccd_polytope.obj
 0002:00002218       $unwind$ccdVec3Len2        0000000180060218     ccd_polytope.obj
 0002:00002220       $unwind$ccdVec3Copy        0000000180060220     ccd_polytope.obj
 0002:00002228       $unwind$ccdVec3Dot         0000000180060228     ccd_polytope.obj
 0002:00002230       $unwind$ccdSupportCopy     0000000180060230     ccd_polytope.obj
 0002:00002238       $unwind$ccdListEmpty       0000000180060238     ccd_polytope.obj
 0002:00002240       $unwind$ccdPtInit          0000000180060240     ccd_polytope.obj
 0002:00002248       $unwind$ccdPtDestroy       0000000180060248     ccd_polytope.obj
 0002:00002250       $unwind$ccdPtAddVertex     0000000180060250     ccd_polytope.obj
 0002:00002258       $unwind$ccdPtAddEdge       0000000180060258     ccd_polytope.obj
 0002:00002260       $unwind$ccdPtAddFace       0000000180060260     ccd_polytope.obj
 0002:00002268       $unwind$ccdPtDelVertex     0000000180060268     ccd_polytope.obj
 0002:00002270       $unwind$ccdPtDelEdge       0000000180060270     ccd_polytope.obj
 0002:00002278       $unwind$ccdPtDelFace       0000000180060278     ccd_polytope.obj
 0002:00002280       $unwind$ccdPtRecomputeDistances 0000000180060280     ccd_polytope.obj
 0002:00002288       $unwind$ccdPtNearest       0000000180060288     ccd_polytope.obj
 0002:00002290       $unwind$ccdPtDumpSVT       0000000180060290     ccd_polytope.obj
 0002:00002298       $unwind$ccdPtDumpSVT2      0000000180060298     ccd_polytope.obj
 0002:000022a0       $unwind$_ccdPtNearestUpdate 00000001800602a0     ccd_polytope.obj
 0002:000022a8       $unwind$_ccdPtNearestRenew 00000001800602a8     ccd_polytope.obj
 0002:000022b0       $unwind$ccdIsZero          00000001800602b0     ccd_vec3.obj
 0002:000022b8       $unwind$ccdEq              00000001800602b8     ccd_vec3.obj
 0002:000022c0       $unwind$ccdVec3Len2        00000001800602c0     ccd_vec3.obj
 0002:000022c8       $unwind$ccdVec3Dist2       00000001800602c8     ccd_vec3.obj
 0002:000022d8       $unwind$ccdVec3Copy        00000001800602d8     ccd_vec3.obj
 0002:000022e0       $unwind$ccdVec3Dot         00000001800602e0     ccd_vec3.obj
 0002:000022e8       $unwind$ccdVec3PointSegmentDist2 00000001800602e8     ccd_vec3.obj
 0002:000022f0       $unwind$ccdVec3PointTriDist2 00000001800602f0     ccd_vec3.obj
 0002:00002300       $unwind$__ccdVec3PointSegmentDist2 0000000180060300     ccd_vec3.obj
 0002:00002310       $unwind$ccdVec3Len2        0000000180060310     collisioncodegen_CollisionGeometry.obj
 0002:00002318       $unwind$ccdVec3Copy        0000000180060318     collisioncodegen_CollisionGeometry.obj
 0002:00002320       $unwind$ccdVec3Dot         0000000180060320     collisioncodegen_CollisionGeometry.obj
 0002:00002328       $unwind$ccdQuatLen2        0000000180060328     collisioncodegen_CollisionGeometry.obj
 0002:00002330       $unwind$ccdQuatCopy        0000000180060330     collisioncodegen_CollisionGeometry.obj
 0002:00002338       $unwind$ccdQuatInvert      0000000180060338     collisioncodegen_CollisionGeometry.obj
 0002:00002340       $unwind$ccdQuatInvert2     0000000180060340     collisioncodegen_CollisionGeometry.obj
 0002:00002348       $unwind$ccdQuatRotVec      0000000180060348     collisioncodegen_CollisionGeometry.obj
 0002:00002350       $unwind$??RCollisionGeometryDeleter@shared_robotics@@QEAAXPEAVCollisionGeometry@1@@Z 0000000180060350     collisioncodegen_CollisionGeometry.obj
 0002:00002358       $unwind$??1CollisionGeometry@shared_robotics@@UEAA@XZ 0000000180060358     collisioncodegen_CollisionGeometry.obj
 0002:00002360       $unwind$?support@CollisionGeometry@shared_robotics@@QEBAXPEBU_ccd_vec3_t@@PEAU3@@Z 0000000180060360     collisioncodegen_CollisionGeometry.obj
 0002:00002374       $cppxdata$?support@CollisionGeometry@shared_robotics@@QEBAXPEBU_ccd_vec3_t@@PEAU3@@Z 0000000180060374     collisioncodegen_CollisionGeometry.obj
 0002:0000237d       $stateUnwindMap$?support@CollisionGeometry@shared_robotics@@QEBAXPEBU_ccd_vec3_t@@PEAU3@@Z 000000018006037d     collisioncodegen_CollisionGeometry.obj
 0002:00002383       $ip2state$?support@CollisionGeometry@shared_robotics@@QEBAXPEBU_ccd_vec3_t@@PEAU3@@Z 0000000180060383     collisioncodegen_CollisionGeometry.obj
 0002:00002394       $unwind$?dtor$0@?0??support@CollisionGeometry@shared_robotics@@QEBAXPEBU_ccd_vec3_t@@PEAU3@@Z@4HA 0000000180060394     collisioncodegen_CollisionGeometry.obj
 0002:0000239c       $unwind$?constructConnectionList@CollisionGeometry@shared_robotics@@IEAAXXZ 000000018006039c     collisioncodegen_CollisionGeometry.obj
 0002:000023a4       $unwind$??0exception@std@@QEAA@QEBDH@Z 00000001800603a4     collisioncodegen_CollisionGeometry.obj
 0002:000023ac       $unwind$??0exception@std@@QEAA@AEBV01@@Z 00000001800603ac     collisioncodegen_CollisionGeometry.obj
 0002:000023bc       $cppxdata$??0exception@std@@QEAA@AEBV01@@Z 00000001800603bc     collisioncodegen_CollisionGeometry.obj
 0002:000023c1       $ip2state$??0exception@std@@QEAA@AEBV01@@Z 00000001800603c1     collisioncodegen_CollisionGeometry.obj
 0002:000023c4       $unwind$??1exception@std@@UEAA@XZ 00000001800603c4     collisioncodegen_CollisionGeometry.obj
 0002:000023d4       $cppxdata$??1exception@std@@UEAA@XZ 00000001800603d4     collisioncodegen_CollisionGeometry.obj
 0002:000023d9       $ip2state$??1exception@std@@UEAA@XZ 00000001800603d9     collisioncodegen_CollisionGeometry.obj
 0002:000023dc       $unwind$?what@exception@std@@UEBAPEBDXZ 00000001800603dc     collisioncodegen_CollisionGeometry.obj
 0002:000023e4       $unwind$??_Gexception@std@@UEAAPEAXI@Z 00000001800603e4     collisioncodegen_CollisionGeometry.obj
 0002:000023ec       $unwind$??0bad_alloc@std@@AEAA@QEBD@Z 00000001800603ec     collisioncodegen_CollisionGeometry.obj
 0002:000023f4       $unwind$??1bad_alloc@std@@UEAA@XZ 00000001800603f4     collisioncodegen_CollisionGeometry.obj
 0002:000023fc       $unwind$??0bad_alloc@std@@QEAA@AEBV01@@Z 00000001800603fc     collisioncodegen_CollisionGeometry.obj
 0002:00002404       $unwind$??_Gbad_alloc@std@@UEAAPEAXI@Z 0000000180060404     collisioncodegen_CollisionGeometry.obj
 0002:0000240c       $unwind$??0bad_array_new_length@std@@QEAA@XZ 000000018006040c     collisioncodegen_CollisionGeometry.obj
 0002:00002414       $unwind$??1bad_array_new_length@std@@UEAA@XZ 0000000180060414     collisioncodegen_CollisionGeometry.obj
 0002:0000241c       $unwind$??0bad_array_new_length@std@@QEAA@AEBV01@@Z 000000018006041c     collisioncodegen_CollisionGeometry.obj
 0002:00002424       $unwind$??_Gbad_array_new_length@std@@UEAAPEAXI@Z 0000000180060424     collisioncodegen_CollisionGeometry.obj
 0002:0000242c       $unwind$?_Throw_bad_array_new_length@std@@YAXXZ 000000018006042c     collisioncodegen_CollisionGeometry.obj
 0002:00002434       $unwind$?_Allocate@_Default_allocate_traits@std@@SAPEAX_K@Z 0000000180060434     collisioncodegen_CollisionGeometry.obj
 0002:0000243c       $unwind$?_Adjust_manually_vector_aligned@std@@YAXAEAPEAXAEA_K@Z 000000018006043c     collisioncodegen_CollisionGeometry.obj
 0002:00002444       $unwind$?length@?$_Narrow_char_traits@DH@std@@SA_KQEBD@Z 0000000180060444     collisioncodegen_CollisionGeometry.obj
 0002:00002454       $cppxdata$?length@?$_Narrow_char_traits@DH@std@@SA_KQEBD@Z 0000000180060454     collisioncodegen_CollisionGeometry.obj
 0002:00002459       $ip2state$?length@?$_Narrow_char_traits@DH@std@@SA_KQEBD@Z 0000000180060459     collisioncodegen_CollisionGeometry.obj
 0002:0000245c       $unwind$?eq_int_type@?$_Narrow_char_traits@DH@std@@SA_NAEBH0@Z 000000018006045c     collisioncodegen_CollisionGeometry.obj
 0002:00002464       $unwind$?sign@CollisionGeometry@shared_robotics@@IEBAHN@Z 0000000180060464     collisioncodegen_CollisionGeometry.obj
 0002:0000246c       $unwind$?deallocate@?$allocator@U_ccd_vec3_t@@@std@@QEAAXQEAU_ccd_vec3_t@@_K@Z 000000018006046c     collisioncodegen_CollisionGeometry.obj
 0002:00002474       $unwind$??1?$vector@U_ccd_vec3_t@@V?$allocator@U_ccd_vec3_t@@@std@@@std@@QEAA@XZ 0000000180060474     collisioncodegen_CollisionGeometry.obj
 0002:0000247c       $unwind$??A?$vector@U_ccd_vec3_t@@V?$allocator@U_ccd_vec3_t@@@std@@@std@@QEBAAEBU_ccd_vec3_t@@_K@Z 000000018006047c     collisioncodegen_CollisionGeometry.obj
 0002:00002484       $unwind$?_Destroy@?$vector@U_ccd_vec3_t@@V?$allocator@U_ccd_vec3_t@@@std@@@std@@AEAAXPEAU_ccd_vec3_t@@0@Z 0000000180060484     collisioncodegen_CollisionGeometry.obj
 0002:0000248c       $unwind$?_Tidy@?$vector@U_ccd_vec3_t@@V?$allocator@U_ccd_vec3_t@@@std@@@std@@AEAAXXZ 000000018006048c     collisioncodegen_CollisionGeometry.obj
 0002:0000249c       $cppxdata$?_Tidy@?$vector@U_ccd_vec3_t@@V?$allocator@U_ccd_vec3_t@@@std@@@std@@AEAAXXZ 000000018006049c     collisioncodegen_CollisionGeometry.obj
 0002:000024a1       $ip2state$?_Tidy@?$vector@U_ccd_vec3_t@@V?$allocator@U_ccd_vec3_t@@@std@@@std@@AEAAXXZ 00000001800604a1     collisioncodegen_CollisionGeometry.obj
 0002:000024a4       $unwind$?_Getal@?$vector@U_ccd_vec3_t@@V?$allocator@U_ccd_vec3_t@@@std@@@std@@AEAAAEAV?$allocator@U_ccd_vec3_t@@@2@XZ 00000001800604a4     collisioncodegen_CollisionGeometry.obj
 0002:000024ac       $unwind$?deallocate@?$allocator@U_idx_vec3_t@shared_robotics@@@std@@QEAAXQEAU_idx_vec3_t@shared_robotics@@_K@Z 00000001800604ac     collisioncodegen_CollisionGeometry.obj
 0002:000024b4       $unwind$??1?$vector@U_idx_vec3_t@shared_robotics@@V?$allocator@U_idx_vec3_t@shared_robotics@@@std@@@std@@QEAA@XZ 00000001800604b4     collisioncodegen_CollisionGeometry.obj
 0002:000024bc       $unwind$??A?$vector@U_idx_vec3_t@shared_robotics@@V?$allocator@U_idx_vec3_t@shared_robotics@@@std@@@std@@QEAAAEAU_idx_vec3_t@shared_robotics@@_K@Z 00000001800604bc     collisioncodegen_CollisionGeometry.obj
 0002:000024c4       $unwind$?_Destroy@?$vector@U_idx_vec3_t@shared_robotics@@V?$allocator@U_idx_vec3_t@shared_robotics@@@std@@@std@@AEAAXPEAU_idx_vec3_t@shared_robotics@@0@Z 00000001800604c4     collisioncodegen_CollisionGeometry.obj
 0002:000024cc       $unwind$?_Tidy@?$vector@U_idx_vec3_t@shared_robotics@@V?$allocator@U_idx_vec3_t@shared_robotics@@@std@@@std@@AEAAXXZ 00000001800604cc     collisioncodegen_CollisionGeometry.obj
 0002:000024dc       $cppxdata$?_Tidy@?$vector@U_idx_vec3_t@shared_robotics@@V?$allocator@U_idx_vec3_t@shared_robotics@@@std@@@std@@AEAAXXZ 00000001800604dc     collisioncodegen_CollisionGeometry.obj
 0002:000024e1       $ip2state$?_Tidy@?$vector@U_idx_vec3_t@shared_robotics@@V?$allocator@U_idx_vec3_t@shared_robotics@@@std@@@std@@AEAAXXZ 00000001800604e1     collisioncodegen_CollisionGeometry.obj
 0002:000024e4       $unwind$?_Getal@?$vector@U_idx_vec3_t@shared_robotics@@V?$allocator@U_idx_vec3_t@shared_robotics@@@std@@@std@@AEAAAEAV?$allocator@U_idx_vec3_t@shared_robotics@@@2@XZ 00000001800604e4     collisioncodegen_CollisionGeometry.obj
 0002:000024ec       $unwind$?deallocate@?$allocator@V?$vector@_KV?$allocator@_K@std@@@std@@@std@@QEAAXQEAV?$vector@_KV?$allocator@_K@std@@@2@_K@Z 00000001800604ec     collisioncodegen_CollisionGeometry.obj
 0002:000024f4       $unwind$?allocate@?$allocator@V?$vector@_KV?$allocator@_K@std@@@std@@@std@@QEAAPEAV?$vector@_KV?$allocator@_K@std@@@2@_K@Z 00000001800604f4     collisioncodegen_CollisionGeometry.obj
 0002:000024fc       $unwind$??1?$vector@V?$vector@_KV?$allocator@_K@std@@@std@@V?$allocator@V?$vector@_KV?$allocator@_K@std@@@std@@@2@@std@@QEAA@XZ 00000001800604fc     collisioncodegen_CollisionGeometry.obj
 0002:00002504       $unwind$?resize@?$vector@V?$vector@_KV?$allocator@_K@std@@@std@@V?$allocator@V?$vector@_KV?$allocator@_K@std@@@std@@@2@@std@@QEAAX_K@Z 0000000180060504     collisioncodegen_CollisionGeometry.obj
 0002:0000250c       $unwind$?max_size@?$vector@V?$vector@_KV?$allocator@_K@std@@@std@@V?$allocator@V?$vector@_KV?$allocator@_K@std@@@std@@@2@@std@@QEBA_KXZ 000000018006050c     collisioncodegen_CollisionGeometry.obj
 0002:00002514       $unwind$?capacity@?$vector@V?$vector@_KV?$allocator@_K@std@@@std@@V?$allocator@V?$vector@_KV?$allocator@_K@std@@@std@@@2@@std@@QEBA_KXZ 0000000180060514     collisioncodegen_CollisionGeometry.obj
 0002:0000251c       $unwind$??A?$vector@V?$vector@_KV?$allocator@_K@std@@@std@@V?$allocator@V?$vector@_KV?$allocator@_K@std@@@std@@@2@@std@@QEAAAEAV?$vector@_KV?$allocator@_K@std@@@1@_K@Z 000000018006051c     collisioncodegen_CollisionGeometry.obj
 0002:00002524       $unwind$??A?$vector@V?$vector@_KV?$allocator@_K@std@@@std@@V?$allocator@V?$vector@_KV?$allocator@_K@std@@@std@@@2@@std@@QEBAAEBV?$vector@_KV?$allocator@_K@std@@@1@_K@Z 0000000180060524     collisioncodegen_CollisionGeometry.obj
 0002:0000252c       $unwind$?_Ufill@?$vector@V?$vector@_KV?$allocator@_K@std@@@std@@V?$allocator@V?$vector@_KV?$allocator@_K@std@@@std@@@2@@std@@AEAAPEAV?$vector@_KV?$allocator@_K@std@@@2@PEAV32@_KU_Value_init_tag@2@@Z 000000018006052c     collisioncodegen_CollisionGeometry.obj
 0002:00002534       $unwind$?_Umove_if_noexcept1@?$vector@V?$vector@_KV?$allocator@_K@std@@@std@@V?$allocator@V?$vector@_KV?$allocator@_K@std@@@std@@@2@@std@@AEAAXPEAV?$vector@_KV?$allocator@_K@std@@@2@00U?$integral_constant@_N$00@2@@Z 0000000180060534     collisioncodegen_CollisionGeometry.obj
 0002:0000253c       $unwind$?_Umove_if_noexcept@?$vector@V?$vector@_KV?$allocator@_K@std@@@std@@V?$allocator@V?$vector@_KV?$allocator@_K@std@@@std@@@2@@std@@AEAAXPEAV?$vector@_KV?$allocator@_K@std@@@2@00@Z 000000018006053c     collisioncodegen_CollisionGeometry.obj
 0002:00002544       $unwind$?_Destroy@?$vector@V?$vector@_KV?$allocator@_K@std@@@std@@V?$allocator@V?$vector@_KV?$allocator@_K@std@@@std@@@2@@std@@AEAAXPEAV?$vector@_KV?$allocator@_K@std@@@2@0@Z 0000000180060544     collisioncodegen_CollisionGeometry.obj
 0002:0000254c       $unwind$?_Calculate_growth@?$vector@V?$vector@_KV?$allocator@_K@std@@@std@@V?$allocator@V?$vector@_KV?$allocator@_K@std@@@std@@@2@@std@@AEBA_K_K@Z 000000018006054c     collisioncodegen_CollisionGeometry.obj
 0002:00002554       $unwind$?_Change_array@?$vector@V?$vector@_KV?$allocator@_K@std@@@std@@V?$allocator@V?$vector@_KV?$allocator@_K@std@@@std@@@2@@std@@AEAAXQEAV?$vector@_KV?$allocator@_K@std@@@2@_K1@Z 0000000180060554     collisioncodegen_CollisionGeometry.obj
 0002:0000255c       $unwind$?_Tidy@?$vector@V?$vector@_KV?$allocator@_K@std@@@std@@V?$allocator@V?$vector@_KV?$allocator@_K@std@@@std@@@2@@std@@AEAAXXZ 000000018006055c     collisioncodegen_CollisionGeometry.obj
 0002:0000256c       $cppxdata$?_Tidy@?$vector@V?$vector@_KV?$allocator@_K@std@@@std@@V?$allocator@V?$vector@_KV?$allocator@_K@std@@@std@@@2@@std@@AEAAXXZ 000000018006056c     collisioncodegen_CollisionGeometry.obj
 0002:00002571       $ip2state$?_Tidy@?$vector@V?$vector@_KV?$allocator@_K@std@@@std@@V?$allocator@V?$vector@_KV?$allocator@_K@std@@@std@@@2@@std@@AEAAXXZ 0000000180060571     collisioncodegen_CollisionGeometry.obj
 0002:00002574       $unwind$?_Xlength@?$vector@V?$vector@_KV?$allocator@_K@std@@@std@@V?$allocator@V?$vector@_KV?$allocator@_K@std@@@std@@@2@@std@@CAXXZ 0000000180060574     collisioncodegen_CollisionGeometry.obj
 0002:0000257c       $unwind$?_Getal@?$vector@V?$vector@_KV?$allocator@_K@std@@@std@@V?$allocator@V?$vector@_KV?$allocator@_K@std@@@std@@@2@@std@@AEAAAEAV?$allocator@V?$vector@_KV?$allocator@_K@std@@@std@@@2@XZ 000000018006057c     collisioncodegen_CollisionGeometry.obj
 0002:00002584       $unwind$?_Getal@?$vector@V?$vector@_KV?$allocator@_K@std@@@std@@V?$allocator@V?$vector@_KV?$allocator@_K@std@@@std@@@2@@std@@AEBAAEBV?$allocator@V?$vector@_KV?$allocator@_K@std@@@std@@@2@XZ 0000000180060584     collisioncodegen_CollisionGeometry.obj
 0002:0000258c       $unwind$??_GCollisionGeometry@shared_robotics@@UEAAPEAXI@Z 000000018006058c     collisioncodegen_CollisionGeometry.obj
 0002:00002594       $unwind$?deallocate@?$allocator@N@std@@QEAAXQEAN_K@Z 0000000180060594     collisioncodegen_CollisionGeometry.obj
 0002:0000259c       $unwind$?allocate@?$allocator@N@std@@QEAAPEAN_K@Z 000000018006059c     collisioncodegen_CollisionGeometry.obj
 0002:000025a4       $unwind$??0?$vector@NV?$allocator@N@std@@@std@@QEAA@XZ 00000001800605a4     collisioncodegen_CollisionGeometry.obj
 0002:000025ac       $unwind$??1?$vector@NV?$allocator@N@std@@@std@@QEAA@XZ 00000001800605ac     collisioncodegen_CollisionGeometry.obj
 0002:000025b4       $unwind$?push_back@?$vector@NV?$allocator@N@std@@@std@@QEAAX$$QEAN@Z 00000001800605b4     collisioncodegen_CollisionGeometry.obj
 0002:000025bc       $unwind$?begin@?$vector@NV?$allocator@N@std@@@std@@QEAA?AV?$_Vector_iterator@V?$_Vector_val@U?$_Simple_types@N@std@@@std@@@2@XZ 00000001800605bc     collisioncodegen_CollisionGeometry.obj
 0002:000025c4       $unwind$?end@?$vector@NV?$allocator@N@std@@@std@@QEAA?AV?$_Vector_iterator@V?$_Vector_val@U?$_Simple_types@N@std@@@std@@@2@XZ 00000001800605c4     collisioncodegen_CollisionGeometry.obj
 0002:000025cc       $unwind$?max_size@?$vector@NV?$allocator@N@std@@@std@@QEBA_KXZ 00000001800605cc     collisioncodegen_CollisionGeometry.obj
 0002:000025d4       $unwind$?capacity@?$vector@NV?$allocator@N@std@@@std@@QEBA_KXZ 00000001800605d4     collisioncodegen_CollisionGeometry.obj
 0002:000025dc       $unwind$?_Umove@?$vector@NV?$allocator@N@std@@@std@@AEAAPEANPEAN00@Z 00000001800605dc     collisioncodegen_CollisionGeometry.obj
 0002:000025e4       $unwind$?_Umove_if_noexcept1@?$vector@NV?$allocator@N@std@@@std@@AEAAXPEAN00U?$integral_constant@_N$00@2@@Z 00000001800605e4     collisioncodegen_CollisionGeometry.obj
 0002:000025ec       $unwind$?_Umove_if_noexcept@?$vector@NV?$allocator@N@std@@@std@@AEAAXPEAN00@Z 00000001800605ec     collisioncodegen_CollisionGeometry.obj
 0002:000025f4       $unwind$?_Destroy@?$vector@NV?$allocator@N@std@@@std@@AEAAXPEAN0@Z 00000001800605f4     collisioncodegen_CollisionGeometry.obj
 0002:000025fc       $unwind$?_Calculate_growth@?$vector@NV?$allocator@N@std@@@std@@AEBA_K_K@Z 00000001800605fc     collisioncodegen_CollisionGeometry.obj
 0002:00002604       $unwind$?_Change_array@?$vector@NV?$allocator@N@std@@@std@@AEAAXQEAN_K1@Z 0000000180060604     collisioncodegen_CollisionGeometry.obj
 0002:0000260c       $unwind$?_Tidy@?$vector@NV?$allocator@N@std@@@std@@AEAAXXZ 000000018006060c     collisioncodegen_CollisionGeometry.obj
 0002:0000261c       $cppxdata$?_Tidy@?$vector@NV?$allocator@N@std@@@std@@AEAAXXZ 000000018006061c     collisioncodegen_CollisionGeometry.obj
 0002:00002621       $ip2state$?_Tidy@?$vector@NV?$allocator@N@std@@@std@@AEAAXXZ 0000000180060621     collisioncodegen_CollisionGeometry.obj
 0002:00002624       $unwind$?_Xlength@?$vector@NV?$allocator@N@std@@@std@@CAXXZ 0000000180060624     collisioncodegen_CollisionGeometry.obj
 0002:0000262c       $unwind$?_Getal@?$vector@NV?$allocator@N@std@@@std@@AEAAAEAV?$allocator@N@2@XZ 000000018006062c     collisioncodegen_CollisionGeometry.obj
 0002:00002634       $unwind$?_Getal@?$vector@NV?$allocator@N@std@@@std@@AEBAAEBV?$allocator@N@2@XZ 0000000180060634     collisioncodegen_CollisionGeometry.obj
 0002:0000263c       $unwind$??0?$_Vector_const_iterator@V?$_Vector_val@U?$_Simple_types@N@std@@@std@@@std@@QEAA@PEANPEBU_Container_base0@1@@Z 000000018006063c     collisioncodegen_CollisionGeometry.obj
 0002:00002644       $unwind$??G?$_Vector_const_iterator@V?$_Vector_val@U?$_Simple_types@N@std@@@std@@@std@@QEBA_JAEBV01@@Z 0000000180060644     collisioncodegen_CollisionGeometry.obj
 0002:0000264c       $unwind$?_Seek_to@?$_Vector_const_iterator@V?$_Vector_val@U?$_Simple_types@N@std@@@std@@@std@@QEAAXPEBN@Z 000000018006064c     collisioncodegen_CollisionGeometry.obj
 0002:00002654       $unwind$?_Unwrapped@?$_Vector_iterator@V?$_Vector_val@U?$_Simple_types@N@std@@@std@@@std@@QEBAPEANXZ 0000000180060654     collisioncodegen_CollisionGeometry.obj
 0002:0000265c       $unwind$??0?$_Vector_iterator@V?$_Vector_val@U?$_Simple_types@N@std@@@std@@@std@@QEAA@PEANPEBU_Container_base0@1@@Z 000000018006065c     collisioncodegen_CollisionGeometry.obj
 0002:00002664       $unwind$??$max_element@V?$_Vector_iterator@V?$_Vector_val@U?$_Simple_types@N@std@@@std@@@std@@@std@@YA?AV?$_Vector_iterator@V?$_Vector_val@U?$_Simple_types@N@std@@@std@@@0@V10@0@Z 0000000180060664     collisioncodegen_CollisionGeometry.obj
 0002:0000266c       $unwind$?deallocate@?$allocator@_K@std@@QEAAXQEA_K_K@Z 000000018006066c     collisioncodegen_CollisionGeometry.obj
 0002:00002674       $unwind$?allocate@?$allocator@_K@std@@QEAAPEA_K_K@Z 0000000180060674     collisioncodegen_CollisionGeometry.obj
 0002:0000267c       $unwind$??0?$vector@_KV?$allocator@_K@std@@@std@@QEAA@XZ 000000018006067c     collisioncodegen_CollisionGeometry.obj
 0002:00002684       $unwind$??0?$vector@_KV?$allocator@_K@std@@@std@@QEAA@$$QEAV01@@Z 0000000180060684     collisioncodegen_CollisionGeometry.obj
 0002:0000268c       $unwind$??1?$vector@_KV?$allocator@_K@std@@@std@@QEAA@XZ 000000018006068c     collisioncodegen_CollisionGeometry.obj
 0002:00002694       $unwind$?push_back@?$vector@_KV?$allocator@_K@std@@@std@@QEAAXAEB_K@Z 0000000180060694     collisioncodegen_CollisionGeometry.obj
 0002:0000269c       $unwind$?resize@?$vector@_KV?$allocator@_K@std@@@std@@QEAAX_K@Z 000000018006069c     collisioncodegen_CollisionGeometry.obj
 0002:000026a4       $unwind$?erase@?$vector@_KV?$allocator@_K@std@@@std@@QEAA?AV?$_Vector_iterator@V?$_Vector_val@U?$_Simple_types@_K@std@@@std@@@2@V?$_Vector_const_iterator@V?$_Vector_val@U?$_Simple_types@_K@std@@@std@@@2@0@Z 00000001800606a4     collisioncodegen_CollisionGeometry.obj
 0002:000026b4       $cppxdata$?erase@?$vector@_KV?$allocator@_K@std@@@std@@QEAA?AV?$_Vector_iterator@V?$_Vector_val@U?$_Simple_types@_K@std@@@std@@@2@V?$_Vector_const_iterator@V?$_Vector_val@U?$_Simple_types@_K@std@@@std@@@2@0@Z 00000001800606b4     collisioncodegen_CollisionGeometry.obj
 0002:000026b9       $ip2state$?erase@?$vector@_KV?$allocator@_K@std@@@std@@QEAA?AV?$_Vector_iterator@V?$_Vector_val@U?$_Simple_types@_K@std@@@std@@@2@V?$_Vector_const_iterator@V?$_Vector_val@U?$_Simple_types@_K@std@@@std@@@2@0@Z 00000001800606b9     collisioncodegen_CollisionGeometry.obj
 0002:000026bc       $unwind$?clear@?$vector@_KV?$allocator@_K@std@@@std@@QEAAXXZ 00000001800606bc     collisioncodegen_CollisionGeometry.obj
 0002:000026cc       $cppxdata$?clear@?$vector@_KV?$allocator@_K@std@@@std@@QEAAXXZ 00000001800606cc     collisioncodegen_CollisionGeometry.obj
 0002:000026d1       $ip2state$?clear@?$vector@_KV?$allocator@_K@std@@@std@@QEAAXXZ 00000001800606d1     collisioncodegen_CollisionGeometry.obj
 0002:000026d4       $unwind$?begin@?$vector@_KV?$allocator@_K@std@@@std@@QEAA?AV?$_Vector_iterator@V?$_Vector_val@U?$_Simple_types@_K@std@@@std@@@2@XZ 00000001800606d4     collisioncodegen_CollisionGeometry.obj
 0002:000026dc       $unwind$?end@?$vector@_KV?$allocator@_K@std@@@std@@QEAA?AV?$_Vector_iterator@V?$_Vector_val@U?$_Simple_types@_K@std@@@std@@@2@XZ 00000001800606dc     collisioncodegen_CollisionGeometry.obj
 0002:000026e4       $unwind$?size@?$vector@_KV?$allocator@_K@std@@@std@@QEBA_KXZ 00000001800606e4     collisioncodegen_CollisionGeometry.obj
 0002:000026ec       $unwind$?max_size@?$vector@_KV?$allocator@_K@std@@@std@@QEBA_KXZ 00000001800606ec     collisioncodegen_CollisionGeometry.obj
 0002:000026f4       $unwind$?capacity@?$vector@_KV?$allocator@_K@std@@@std@@QEBA_KXZ 00000001800606f4     collisioncodegen_CollisionGeometry.obj
 0002:000026fc       $unwind$??A?$vector@_KV?$allocator@_K@std@@@std@@QEBAAEB_K_K@Z 00000001800606fc     collisioncodegen_CollisionGeometry.obj
 0002:00002704       $unwind$?_Ufill@?$vector@_KV?$allocator@_K@std@@@std@@AEAAPEA_KPEA_K_KU_Value_init_tag@2@@Z 0000000180060704     collisioncodegen_CollisionGeometry.obj
 0002:0000270c       $unwind$?_Umove@?$vector@_KV?$allocator@_K@std@@@std@@AEAAPEA_KPEA_K00@Z 000000018006070c     collisioncodegen_CollisionGeometry.obj
 0002:00002714       $unwind$?_Umove_if_noexcept1@?$vector@_KV?$allocator@_K@std@@@std@@AEAAXPEA_K00U?$integral_constant@_N$00@2@@Z 0000000180060714     collisioncodegen_CollisionGeometry.obj
 0002:0000271c       $unwind$?_Umove_if_noexcept@?$vector@_KV?$allocator@_K@std@@@std@@AEAAXPEA_K00@Z 000000018006071c     collisioncodegen_CollisionGeometry.obj
 0002:00002724       $unwind$?_Destroy@?$vector@_KV?$allocator@_K@std@@@std@@AEAAXPEA_K0@Z 0000000180060724     collisioncodegen_CollisionGeometry.obj
 0002:0000272c       $unwind$?_Calculate_growth@?$vector@_KV?$allocator@_K@std@@@std@@AEBA_K_K@Z 000000018006072c     collisioncodegen_CollisionGeometry.obj
 0002:00002734       $unwind$?_Change_array@?$vector@_KV?$allocator@_K@std@@@std@@AEAAXQEA_K_K1@Z 0000000180060734     collisioncodegen_CollisionGeometry.obj
 0002:0000273c       $unwind$?_Tidy@?$vector@_KV?$allocator@_K@std@@@std@@AEAAXXZ 000000018006073c     collisioncodegen_CollisionGeometry.obj
 0002:0000274c       $cppxdata$?_Tidy@?$vector@_KV?$allocator@_K@std@@@std@@AEAAXXZ 000000018006074c     collisioncodegen_CollisionGeometry.obj
 0002:00002751       $ip2state$?_Tidy@?$vector@_KV?$allocator@_K@std@@@std@@AEAAXXZ 0000000180060751     collisioncodegen_CollisionGeometry.obj
 0002:00002754       $unwind$?_Xlength@?$vector@_KV?$allocator@_K@std@@@std@@CAXXZ 0000000180060754     collisioncodegen_CollisionGeometry.obj
 0002:0000275c       $unwind$?_Getal@?$vector@_KV?$allocator@_K@std@@@std@@AEAAAEAV?$allocator@_K@2@XZ 000000018006075c     collisioncodegen_CollisionGeometry.obj
 0002:00002764       $unwind$?_Getal@?$vector@_KV?$allocator@_K@std@@@std@@AEBAAEBV?$allocator@_K@2@XZ 0000000180060764     collisioncodegen_CollisionGeometry.obj
 0002:0000276c       $unwind$??_G?$vector@_KV?$allocator@_K@std@@@std@@QEAAPEAXI@Z 000000018006076c     collisioncodegen_CollisionGeometry.obj
 0002:00002774       $unwind$??$?6U?$char_traits@D@std@@@std@@YAAEAV?$basic_ostream@DU?$char_traits@D@std@@@0@AEAV10@PEBD@Z 0000000180060774     collisioncodegen_CollisionGeometry.obj
 0002:00002784       $cppxdata$??$?6U?$char_traits@D@std@@@std@@YAAEAV?$basic_ostream@DU?$char_traits@D@std@@@0@AEAV10@PEBD@Z 0000000180060784     collisioncodegen_CollisionGeometry.obj
 0002:00002791       $stateUnwindMap$??$?6U?$char_traits@D@std@@@std@@YAAEAV?$basic_ostream@DU?$char_traits@D@std@@@0@AEAV10@PEBD@Z 0000000180060791     collisioncodegen_CollisionGeometry.obj
 0002:00002799       $tryMap$??$?6U?$char_traits@D@std@@@std@@YAAEAV?$basic_ostream@DU?$char_traits@D@std@@@0@AEAV10@PEBD@Z 0000000180060799     collisioncodegen_CollisionGeometry.obj
 0002:000027a1       $handlerMap$??$?6U?$char_traits@D@std@@@std@@YAAEAV?$basic_ostream@DU?$char_traits@D@std@@@0@AEAV10@PEBD@Z 00000001800607a1     collisioncodegen_CollisionGeometry.obj
 0002:000027a8       $ip2state$??$?6U?$char_traits@D@std@@@std@@YAAEAV?$basic_ostream@DU?$char_traits@D@std@@@0@AEAV10@PEBD@Z 00000001800607a8     collisioncodegen_CollisionGeometry.obj
 0002:000027b8       $unwind$?dtor$0@?0???$?6U?$char_traits@D@std@@@std@@YAAEAV?$basic_ostream@DU?$char_traits@D@std@@@0@AEAV10@PEBD@Z@4HA 00000001800607b8     collisioncodegen_CollisionGeometry.obj
 0002:000027c0       $unwind$?catch$1@?0???$?6U?$char_traits@D@std@@@std@@YAAEAV?$basic_ostream@DU?$char_traits@D@std@@@0@AEAV10@PEBD@Z@4HA 00000001800607c0     collisioncodegen_CollisionGeometry.obj
 0002:000027c8       $unwind$??$endl@DU?$char_traits@D@std@@@std@@YAAEAV?$basic_ostream@DU?$char_traits@D@std@@@0@AEAV10@@Z 00000001800607c8     collisioncodegen_CollisionGeometry.obj
 0002:000027d0       $unwind$??0?$_Vector_const_iterator@V?$_Vector_val@U?$_Simple_types@_K@std@@@std@@@std@@QEAA@PEA_KPEBU_Container_base0@1@@Z 00000001800607d0     collisioncodegen_CollisionGeometry.obj
 0002:000027d8       $unwind$?_Seek_to@?$_Vector_const_iterator@V?$_Vector_val@U?$_Simple_types@_K@std@@@std@@@std@@QEAAXPEB_K@Z 00000001800607d8     collisioncodegen_CollisionGeometry.obj
 0002:000027e0       $unwind$?_Unwrapped@?$_Vector_iterator@V?$_Vector_val@U?$_Simple_types@_K@std@@@std@@@std@@QEBAPEA_KXZ 00000001800607e0     collisioncodegen_CollisionGeometry.obj
 0002:000027e8       $unwind$??0?$_Vector_iterator@V?$_Vector_val@U?$_Simple_types@_K@std@@@std@@@std@@QEAA@PEA_KPEBU_Container_base0@1@@Z 00000001800607e8     collisioncodegen_CollisionGeometry.obj
 0002:000027f0       $unwind$??$sort@V?$_Vector_iterator@V?$_Vector_val@U?$_Simple_types@_K@std@@@std@@@std@@@std@@YAXV?$_Vector_iterator@V?$_Vector_val@U?$_Simple_types@_K@std@@@std@@@0@0@Z 00000001800607f0     collisioncodegen_CollisionGeometry.obj
 0002:000027f8       $unwind$??$unique@V?$_Vector_iterator@V?$_Vector_val@U?$_Simple_types@_K@std@@@std@@@std@@@std@@YA?AV?$_Vector_iterator@V?$_Vector_val@U?$_Simple_types@_K@std@@@std@@@0@V10@0@Z 00000001800607f8     collisioncodegen_CollisionGeometry.obj
 0002:00002800       $unwind$??$_Move_unchecked@PEA_KPEA_K@std@@YAPEA_KPEA_K00@Z 0000000180060800     collisioncodegen_CollisionGeometry.obj
 0002:00002808       $unwind$??$_Resize@U_Value_init_tag@std@@@?$vector@_KV?$allocator@_K@std@@@std@@AEAAX_KAEBU_Value_init_tag@1@@Z 0000000180060808     collisioncodegen_CollisionGeometry.obj
 0002:00002810       $unwind$??$emplace_back@AEB_K@?$vector@_KV?$allocator@_K@std@@@std@@QEAA?A_TAEB_K@Z 0000000180060810     collisioncodegen_CollisionGeometry.obj
 0002:00002818       $unwind$??$_Emplace_back_with_unused_capacity@AEB_K@?$vector@_KV?$allocator@_K@std@@@std@@AEAA?A_TAEB_K@Z 0000000180060818     collisioncodegen_CollisionGeometry.obj
 0002:00002820       $unwind$??$construct@_KAEB_K@?$_Default_allocator_traits@V?$allocator@_K@std@@@std@@SAXAEAV?$allocator@_K@1@QEA_KAEB_K@Z 0000000180060820     collisioncodegen_CollisionGeometry.obj
 0002:00002828       $unwind$??$_Emplace_reallocate@AEB_K@?$vector@_KV?$allocator@_K@std@@@std@@QEAAPEA_KQEA_KAEB_K@Z 0000000180060828     collisioncodegen_CollisionGeometry.obj
 0002:00002838       $cppxdata$??$_Emplace_reallocate@AEB_K@?$vector@_KV?$allocator@_K@std@@@std@@QEAAPEA_KQEA_KAEB_K@Z 0000000180060838     collisioncodegen_CollisionGeometry.obj
 0002:00002845       $stateUnwindMap$??$_Emplace_reallocate@AEB_K@?$vector@_KV?$allocator@_K@std@@@std@@QEAAPEA_KQEA_KAEB_K@Z 0000000180060845     collisioncodegen_CollisionGeometry.obj
 0002:00002848       $tryMap$??$_Emplace_reallocate@AEB_K@?$vector@_KV?$allocator@_K@std@@@std@@QEAAPEA_KQEA_KAEB_K@Z 0000000180060848     collisioncodegen_CollisionGeometry.obj
 0002:00002850       $handlerMap$??$_Emplace_reallocate@AEB_K@?$vector@_KV?$allocator@_K@std@@@std@@QEAAPEA_KQEA_KAEB_K@Z 0000000180060850     collisioncodegen_CollisionGeometry.obj
 0002:00002857       $ip2state$??$_Emplace_reallocate@AEB_K@?$vector@_KV?$allocator@_K@std@@@std@@QEAAPEA_KQEA_KAEB_K@Z 0000000180060857     collisioncodegen_CollisionGeometry.obj
 0002:00002860       $unwind$?catch$0@?0???$_Emplace_reallocate@AEB_K@?$vector@_KV?$allocator@_K@std@@@std@@QEAAPEA_KQEA_KAEB_K@Z@4HA 0000000180060860     collisioncodegen_CollisionGeometry.obj
 0002:00002868       $unwind$??$emplace_back@N@?$vector@NV?$allocator@N@std@@@std@@QEAA?A_T$$QEAN@Z 0000000180060868     collisioncodegen_CollisionGeometry.obj
 0002:00002870       $unwind$??$_Emplace_back_with_unused_capacity@N@?$vector@NV?$allocator@N@std@@@std@@AEAA?A_T$$QEAN@Z 0000000180060870     collisioncodegen_CollisionGeometry.obj
 0002:00002878       $unwind$??$construct@NN@?$_Default_allocator_traits@V?$allocator@N@std@@@std@@SAXAEAV?$allocator@N@1@QEAN$$QEAN@Z 0000000180060878     collisioncodegen_CollisionGeometry.obj
 0002:00002880       $unwind$??$_Emplace_reallocate@N@?$vector@NV?$allocator@N@std@@@std@@QEAAPEANQEAN$$QEAN@Z 0000000180060880     collisioncodegen_CollisionGeometry.obj
 0002:00002890       $cppxdata$??$_Emplace_reallocate@N@?$vector@NV?$allocator@N@std@@@std@@QEAAPEANQEAN$$QEAN@Z 0000000180060890     collisioncodegen_CollisionGeometry.obj
 0002:0000289d       $stateUnwindMap$??$_Emplace_reallocate@N@?$vector@NV?$allocator@N@std@@@std@@QEAAPEANQEAN$$QEAN@Z 000000018006089d     collisioncodegen_CollisionGeometry.obj
 0002:000028a0       $tryMap$??$_Emplace_reallocate@N@?$vector@NV?$allocator@N@std@@@std@@QEAAPEANQEAN$$QEAN@Z 00000001800608a0     collisioncodegen_CollisionGeometry.obj
 0002:000028a8       $handlerMap$??$_Emplace_reallocate@N@?$vector@NV?$allocator@N@std@@@std@@QEAAPEANQEAN$$QEAN@Z 00000001800608a8     collisioncodegen_CollisionGeometry.obj
 0002:000028af       $ip2state$??$_Emplace_reallocate@N@?$vector@NV?$allocator@N@std@@@std@@QEAAPEANQEAN$$QEAN@Z 00000001800608af     collisioncodegen_CollisionGeometry.obj
 0002:000028b8       $unwind$?catch$0@?0???$_Emplace_reallocate@N@?$vector@NV?$allocator@N@std@@@std@@QEAAPEANQEAN$$QEAN@Z@4HA 00000001800608b8     collisioncodegen_CollisionGeometry.obj
 0002:000028c0       $unwind$??$?0$$V@?$_Compressed_pair@V?$allocator@N@std@@V?$_Vector_val@U?$_Simple_types@N@std@@@2@$00@std@@QEAA@U_Zero_then_variadic_args_t@1@@Z 00000001800608c0     collisioncodegen_CollisionGeometry.obj
 0002:000028c8       $unwind$??$_Resize@U_Value_init_tag@std@@@?$vector@V?$vector@_KV?$allocator@_K@std@@@std@@V?$allocator@V?$vector@_KV?$allocator@_K@std@@@std@@@2@@std@@AEAAX_KAEBU_Value_init_tag@1@@Z 00000001800608c8     collisioncodegen_CollisionGeometry.obj
 0002:000028d0       $unwind$??$min@_K@std@@YAAEB_KAEB_K0@Z 00000001800608d0     collisioncodegen_CollisionGeometry.obj
 0002:000028d8       $unwind$??$_Deallocate@$0BA@$0A@@std@@YAXPEAX_K@Z 00000001800608d8     collisioncodegen_CollisionGeometry.obj
 0002:000028e8       $cppxdata$??$_Deallocate@$0BA@$0A@@std@@YAXPEAX_K@Z 00000001800608e8     collisioncodegen_CollisionGeometry.obj
 0002:000028ed       $ip2state$??$_Deallocate@$0BA@$0A@@std@@YAXPEAX_K@Z 00000001800608ed     collisioncodegen_CollisionGeometry.obj
 0002:000028f0       $unwind$??$_Destroy_range@V?$allocator@V?$vector@_KV?$allocator@_K@std@@@std@@@std@@@std@@YAXPEAV?$vector@_KV?$allocator@_K@std@@@0@QEAV10@AEAV?$allocator@V?$vector@_KV?$allocator@_K@std@@@std@@@0@@Z 00000001800608f0     collisioncodegen_CollisionGeometry.obj
 0002:00002900       $cppxdata$??$_Destroy_range@V?$allocator@V?$vector@_KV?$allocator@_K@std@@@std@@@std@@@std@@YAXPEAV?$vector@_KV?$allocator@_K@std@@@0@QEAV10@AEAV?$allocator@V?$vector@_KV?$allocator@_K@std@@@std@@@0@@Z 0000000180060900     collisioncodegen_CollisionGeometry.obj
 0002:00002905       $ip2state$??$_Destroy_range@V?$allocator@V?$vector@_KV?$allocator@_K@std@@@std@@@std@@@std@@YAXPEAV?$vector@_KV?$allocator@_K@std@@@0@QEAV10@AEAV?$allocator@V?$vector@_KV?$allocator@_K@std@@@std@@@0@@Z 0000000180060905     collisioncodegen_CollisionGeometry.obj
 0002:00002908       $unwind$??$_Allocate@$0BA@U_Default_allocate_traits@std@@$0A@@std@@YAPEAX_K@Z 0000000180060908     collisioncodegen_CollisionGeometry.obj
 0002:00002910       $unwind$??$max_element@V?$_Vector_iterator@V?$_Vector_val@U?$_Simple_types@N@std@@@std@@@std@@U?$less@X@2@@std@@YA?AV?$_Vector_iterator@V?$_Vector_val@U?$_Simple_types@N@std@@@std@@@0@V10@0U?$less@X@0@@Z 0000000180060910     collisioncodegen_CollisionGeometry.obj
 0002:00002918       $unwind$??0_Sentry_base@?$basic_ostream@DU?$char_traits@D@std@@@std@@QEAA@AEAV12@@Z 0000000180060918     collisioncodegen_CollisionGeometry.obj
 0002:00002920       $unwind$??1_Sentry_base@?$basic_ostream@DU?$char_traits@D@std@@@std@@QEAA@XZ 0000000180060920     collisioncodegen_CollisionGeometry.obj
 0002:00002930       $cppxdata$??1_Sentry_base@?$basic_ostream@DU?$char_traits@D@std@@@std@@QEAA@XZ 0000000180060930     collisioncodegen_CollisionGeometry.obj
 0002:00002935       $ip2state$??1_Sentry_base@?$basic_ostream@DU?$char_traits@D@std@@@std@@QEAA@XZ 0000000180060935     collisioncodegen_CollisionGeometry.obj
 0002:00002938       $unwind$??0sentry@?$basic_ostream@DU?$char_traits@D@std@@@std@@QEAA@AEAV12@@Z 0000000180060938     collisioncodegen_CollisionGeometry.obj
 0002:00002948       $cppxdata$??0sentry@?$basic_ostream@DU?$char_traits@D@std@@@std@@QEAA@AEAV12@@Z 0000000180060948     collisioncodegen_CollisionGeometry.obj
 0002:00002951       $stateUnwindMap$??0sentry@?$basic_ostream@DU?$char_traits@D@std@@@std@@QEAA@AEAV12@@Z 0000000180060951     collisioncodegen_CollisionGeometry.obj
 0002:00002957       $ip2state$??0sentry@?$basic_ostream@DU?$char_traits@D@std@@@std@@QEAA@AEAV12@@Z 0000000180060957     collisioncodegen_CollisionGeometry.obj
 0002:00002960       $unwind$?dtor$0@?0???0sentry@?$basic_ostream@DU?$char_traits@D@std@@@std@@QEAA@AEAV12@@Z@4HA 0000000180060960     collisioncodegen_CollisionGeometry.obj
 0002:00002968       $unwind$??1sentry@?$basic_ostream@DU?$char_traits@D@std@@@std@@QEAA@XZ 0000000180060968     collisioncodegen_CollisionGeometry.obj
 0002:00002978       $cppxdata$??1sentry@?$basic_ostream@DU?$char_traits@D@std@@@std@@QEAA@XZ 0000000180060978     collisioncodegen_CollisionGeometry.obj
 0002:0000297d       $ip2state$??1sentry@?$basic_ostream@DU?$char_traits@D@std@@@std@@QEAA@XZ 000000018006097d     collisioncodegen_CollisionGeometry.obj
 0002:00002980       $unwind$??$sort@V?$_Vector_iterator@V?$_Vector_val@U?$_Simple_types@_K@std@@@std@@@std@@U?$less@X@2@@std@@YAXV?$_Vector_iterator@V?$_Vector_val@U?$_Simple_types@_K@std@@@std@@@0@0U?$less@X@0@@Z 0000000180060980     collisioncodegen_CollisionGeometry.obj
 0002:00002988       $unwind$??$unique@V?$_Vector_iterator@V?$_Vector_val@U?$_Simple_types@_K@std@@@std@@@std@@U?$equal_to@X@2@@std@@YA?AV?$_Vector_iterator@V?$_Vector_val@U?$_Simple_types@_K@std@@@std@@@0@V10@0U?$equal_to@X@0@@Z 0000000180060988     collisioncodegen_CollisionGeometry.obj
 0002:00002990       $unwind$??$_Copy_memmove@PEA_KPEA_K@std@@YAPEA_KPEA_K00@Z 0000000180060990     collisioncodegen_CollisionGeometry.obj
 0002:00002998       $unwind$??$_Resize_reallocate@U_Value_init_tag@std@@@?$vector@_KV?$allocator@_K@std@@@std@@AEAAX_KAEBU_Value_init_tag@1@@Z 0000000180060998     collisioncodegen_CollisionGeometry.obj
 0002:000029a8       $cppxdata$??$_Resize_reallocate@U_Value_init_tag@std@@@?$vector@_KV?$allocator@_K@std@@@std@@AEAAX_KAEBU_Value_init_tag@1@@Z 00000001800609a8     collisioncodegen_CollisionGeometry.obj
 0002:000029b5       $stateUnwindMap$??$_Resize_reallocate@U_Value_init_tag@std@@@?$vector@_KV?$allocator@_K@std@@@std@@AEAAX_KAEBU_Value_init_tag@1@@Z 00000001800609b5     collisioncodegen_CollisionGeometry.obj
 0002:000029b8       $tryMap$??$_Resize_reallocate@U_Value_init_tag@std@@@?$vector@_KV?$allocator@_K@std@@@std@@AEAAX_KAEBU_Value_init_tag@1@@Z 00000001800609b8     collisioncodegen_CollisionGeometry.obj
 0002:000029c0       $handlerMap$??$_Resize_reallocate@U_Value_init_tag@std@@@?$vector@_KV?$allocator@_K@std@@@std@@AEAAX_KAEBU_Value_init_tag@1@@Z 00000001800609c0     collisioncodegen_CollisionGeometry.obj
 0002:000029c7       $ip2state$??$_Resize_reallocate@U_Value_init_tag@std@@@?$vector@_KV?$allocator@_K@std@@@std@@AEAAX_KAEBU_Value_init_tag@1@@Z 00000001800609c7     collisioncodegen_CollisionGeometry.obj
 0002:000029d0       $unwind$?catch$0@?0???$_Resize_reallocate@U_Value_init_tag@std@@@?$vector@_KV?$allocator@_K@std@@@std@@AEAAX_KAEBU_Value_init_tag@1@@Z@4HA 00000001800609d0     collisioncodegen_CollisionGeometry.obj
 0002:000029d8       $unwind$??$_Resize_reallocate@U_Value_init_tag@std@@@?$vector@V?$vector@_KV?$allocator@_K@std@@@std@@V?$allocator@V?$vector@_KV?$allocator@_K@std@@@std@@@2@@std@@AEAAX_KAEBU_Value_init_tag@1@@Z 00000001800609d8     collisioncodegen_CollisionGeometry.obj
 0002:000029e8       $cppxdata$??$_Resize_reallocate@U_Value_init_tag@std@@@?$vector@V?$vector@_KV?$allocator@_K@std@@@std@@V?$allocator@V?$vector@_KV?$allocator@_K@std@@@std@@@2@@std@@AEAAX_KAEBU_Value_init_tag@1@@Z 00000001800609e8     collisioncodegen_CollisionGeometry.obj
 0002:000029f5       $stateUnwindMap$??$_Resize_reallocate@U_Value_init_tag@std@@@?$vector@V?$vector@_KV?$allocator@_K@std@@@std@@V?$allocator@V?$vector@_KV?$allocator@_K@std@@@std@@@2@@std@@AEAAX_KAEBU_Value_init_tag@1@@Z 00000001800609f5     collisioncodegen_CollisionGeometry.obj
 0002:000029f8       $tryMap$??$_Resize_reallocate@U_Value_init_tag@std@@@?$vector@V?$vector@_KV?$allocator@_K@std@@@std@@V?$allocator@V?$vector@_KV?$allocator@_K@std@@@std@@@2@@std@@AEAAX_KAEBU_Value_init_tag@1@@Z 00000001800609f8     collisioncodegen_CollisionGeometry.obj
 0002:00002a00       $handlerMap$??$_Resize_reallocate@U_Value_init_tag@std@@@?$vector@V?$vector@_KV?$allocator@_K@std@@@std@@V?$allocator@V?$vector@_KV?$allocator@_K@std@@@std@@@2@@std@@AEAAX_KAEBU_Value_init_tag@1@@Z 0000000180060a00     collisioncodegen_CollisionGeometry.obj
 0002:00002a07       $ip2state$??$_Resize_reallocate@U_Value_init_tag@std@@@?$vector@V?$vector@_KV?$allocator@_K@std@@@std@@V?$allocator@V?$vector@_KV?$allocator@_K@std@@@std@@@2@@std@@AEAAX_KAEBU_Value_init_tag@1@@Z 0000000180060a07     collisioncodegen_CollisionGeometry.obj
 0002:00002a10       $unwind$?catch$0@?0???$_Resize_reallocate@U_Value_init_tag@std@@@?$vector@V?$vector@_KV?$allocator@_K@std@@@std@@V?$allocator@V?$vector@_KV?$allocator@_K@std@@@std@@@2@@std@@AEAAX_KAEBU_Value_init_tag@1@@Z@4HA 0000000180060a10     collisioncodegen_CollisionGeometry.obj
 0002:00002a18       $unwind$??$destroy@V?$vector@_KV?$allocator@_K@std@@@std@@@?$_Default_allocator_traits@V?$allocator@V?$vector@_KV?$allocator@_K@std@@@std@@@std@@@std@@SAXAEAV?$allocator@V?$vector@_KV?$allocator@_K@std@@@std@@@1@QEAV?$vector@_KV?$allocator@_K@std@@@1@@Z 0000000180060a18     collisioncodegen_CollisionGeometry.obj
 0002:00002a20       $unwind$??$_Allocate_manually_vector_aligned@U_Default_allocate_traits@std@@@std@@YAPEAX_K@Z 0000000180060a20     collisioncodegen_CollisionGeometry.obj
 0002:00002a28       $unwind$??$_Uninitialized_move@PEA_KV?$allocator@_K@std@@@std@@YAPEA_KQEA_K0PEA_KAEAV?$allocator@_K@0@@Z 0000000180060a28     collisioncodegen_CollisionGeometry.obj
 0002:00002a38       $cppxdata$??$_Uninitialized_move@PEA_KV?$allocator@_K@std@@@std@@YAPEA_KQEA_K0PEA_KAEAV?$allocator@_K@0@@Z 0000000180060a38     collisioncodegen_CollisionGeometry.obj
 0002:00002a41       $stateUnwindMap$??$_Uninitialized_move@PEA_KV?$allocator@_K@std@@@std@@YAPEA_KQEA_K0PEA_KAEAV?$allocator@_K@0@@Z 0000000180060a41     collisioncodegen_CollisionGeometry.obj
 0002:00002a47       $ip2state$??$_Uninitialized_move@PEA_KV?$allocator@_K@std@@@std@@YAPEA_KQEA_K0PEA_KAEAV?$allocator@_K@0@@Z 0000000180060a47     collisioncodegen_CollisionGeometry.obj
 0002:00002a4c       $unwind$?dtor$0@?0???$_Uninitialized_move@PEA_KV?$allocator@_K@std@@@std@@YAPEA_KQEA_K0PEA_KAEAV?$allocator@_K@0@@Z@4HA 0000000180060a4c     collisioncodegen_CollisionGeometry.obj
 0002:00002a54       $unwind$??$_Uninitialized_value_construct_n@V?$allocator@_K@std@@@std@@YAPEA_KPEA_K_KAEAV?$allocator@_K@0@@Z 0000000180060a54     collisioncodegen_CollisionGeometry.obj
 0002:00002a64       $cppxdata$??$_Uninitialized_value_construct_n@V?$allocator@_K@std@@@std@@YAPEA_KPEA_K_KAEAV?$allocator@_K@0@@Z 0000000180060a64     collisioncodegen_CollisionGeometry.obj
 0002:00002a6d       $stateUnwindMap$??$_Uninitialized_value_construct_n@V?$allocator@_K@std@@@std@@YAPEA_KPEA_K_KAEAV?$allocator@_K@0@@Z 0000000180060a6d     collisioncodegen_CollisionGeometry.obj
 0002:00002a73       $ip2state$??$_Uninitialized_value_construct_n@V?$allocator@_K@std@@@std@@YAPEA_KPEA_K_KAEAV?$allocator@_K@0@@Z 0000000180060a73     collisioncodegen_CollisionGeometry.obj
 0002:00002a78       $unwind$?dtor$0@?0???$_Uninitialized_value_construct_n@V?$allocator@_K@std@@@std@@YAPEA_KPEA_K_KAEAV?$allocator@_K@0@@Z@4HA 0000000180060a78     collisioncodegen_CollisionGeometry.obj
 0002:00002a80       $unwind$??$_Get_size_of_n@$07@std@@YA_K_K@Z 0000000180060a80     collisioncodegen_CollisionGeometry.obj
 0002:00002a88       $unwind$??$_Uninitialized_move@PEANV?$allocator@N@std@@@std@@YAPEANQEAN0PEANAEAV?$allocator@N@0@@Z 0000000180060a88     collisioncodegen_CollisionGeometry.obj
 0002:00002a98       $cppxdata$??$_Uninitialized_move@PEANV?$allocator@N@std@@@std@@YAPEANQEAN0PEANAEAV?$allocator@N@0@@Z 0000000180060a98     collisioncodegen_CollisionGeometry.obj
 0002:00002aa1       $stateUnwindMap$??$_Uninitialized_move@PEANV?$allocator@N@std@@@std@@YAPEANQEAN0PEANAEAV?$allocator@N@0@@Z 0000000180060aa1     collisioncodegen_CollisionGeometry.obj
 0002:00002aa7       $ip2state$??$_Uninitialized_move@PEANV?$allocator@N@std@@@std@@YAPEANQEAN0PEANAEAV?$allocator@N@0@@Z 0000000180060aa7     collisioncodegen_CollisionGeometry.obj
 0002:00002aac       $unwind$?dtor$0@?0???$_Uninitialized_move@PEANV?$allocator@N@std@@@std@@YAPEANQEAN0PEANAEAV?$allocator@N@0@@Z@4HA 0000000180060aac     collisioncodegen_CollisionGeometry.obj
 0002:00002ab4       $unwind$??$_Uninitialized_value_construct_n@V?$allocator@V?$vector@_KV?$allocator@_K@std@@@std@@@std@@@std@@YAPEAV?$vector@_KV?$allocator@_K@std@@@0@PEAV10@_KAEAV?$allocator@V?$vector@_KV?$allocator@_K@std@@@std@@@0@@Z 0000000180060ab4     collisioncodegen_CollisionGeometry.obj
 0002:00002ac4       $cppxdata$??$_Uninitialized_value_construct_n@V?$allocator@V?$vector@_KV?$allocator@_K@std@@@std@@@std@@@std@@YAPEAV?$vector@_KV?$allocator@_K@std@@@0@PEAV10@_KAEAV?$allocator@V?$vector@_KV?$allocator@_K@std@@@std@@@0@@Z 0000000180060ac4     collisioncodegen_CollisionGeometry.obj
 0002:00002acd       $stateUnwindMap$??$_Uninitialized_value_construct_n@V?$allocator@V?$vector@_KV?$allocator@_K@std@@@std@@@std@@@std@@YAPEAV?$vector@_KV?$allocator@_K@std@@@0@PEAV10@_KAEAV?$allocator@V?$vector@_KV?$allocator@_K@std@@@std@@@0@@Z 0000000180060acd     collisioncodegen_CollisionGeometry.obj
 0002:00002ad3       $ip2state$??$_Uninitialized_value_construct_n@V?$allocator@V?$vector@_KV?$allocator@_K@std@@@std@@@std@@@std@@YAPEAV?$vector@_KV?$allocator@_K@std@@@0@PEAV10@_KAEAV?$allocator@V?$vector@_KV?$allocator@_K@std@@@std@@@0@@Z 0000000180060ad3     collisioncodegen_CollisionGeometry.obj
 0002:00002adc       $unwind$?dtor$0@?0???$_Uninitialized_value_construct_n@V?$allocator@V?$vector@_KV?$allocator@_K@std@@@std@@@std@@@std@@YAPEAV?$vector@_KV?$allocator@_K@std@@@0@PEAV10@_KAEAV?$allocator@V?$vector@_KV?$allocator@_K@std@@@std@@@0@@Z@4HA 0000000180060adc     collisioncodegen_CollisionGeometry.obj
 0002:00002ae4       $unwind$??$_Get_size_of_n@$0BI@@std@@YA_K_K@Z 0000000180060ae4     collisioncodegen_CollisionGeometry.obj
 0002:00002aec       $unwind$??$_Get_unwrapped@AEAV?$_Vector_iterator@V?$_Vector_val@U?$_Simple_types@N@std@@@std@@@std@@@std@@YA?A_TAEAV?$_Vector_iterator@V?$_Vector_val@U?$_Simple_types@N@std@@@std@@@0@@Z 0000000180060aec     collisioncodegen_CollisionGeometry.obj
 0002:00002af4       $unwind$??$_Max_element_unchecked@PEANU?$less@X@std@@@std@@YAPEANPEAN0U?$less@X@0@@Z 0000000180060af4     collisioncodegen_CollisionGeometry.obj
 0002:00002afc       $unwind$??$_Seek_wrapped@V?$_Vector_iterator@V?$_Vector_val@U?$_Simple_types@N@std@@@std@@@std@@PEAN@std@@YAXAEAV?$_Vector_iterator@V?$_Vector_val@U?$_Simple_types@N@std@@@std@@@0@$$QEAPEAN@Z 0000000180060afc     collisioncodegen_CollisionGeometry.obj
 0002:00002b04       $unwind$??$_Get_unwrapped@AEBV?$_Vector_iterator@V?$_Vector_val@U?$_Simple_types@_K@std@@@std@@@std@@@std@@YA?A_TAEBV?$_Vector_iterator@V?$_Vector_val@U?$_Simple_types@_K@std@@@std@@@0@@Z 0000000180060b04     collisioncodegen_CollisionGeometry.obj
 0002:00002b0c       $unwind$??$_Sort_unchecked@PEA_KU?$less@X@std@@@std@@YAXPEA_K0_JU?$less@X@0@@Z 0000000180060b0c     collisioncodegen_CollisionGeometry.obj
 0002:00002b14       $unwind$??$_Get_unwrapped@AEAV?$_Vector_iterator@V?$_Vector_val@U?$_Simple_types@_K@std@@@std@@@std@@@std@@YA?A_TAEAV?$_Vector_iterator@V?$_Vector_val@U?$_Simple_types@_K@std@@@std@@@0@@Z 0000000180060b14     collisioncodegen_CollisionGeometry.obj
 0002:00002b1c       $unwind$??$?RAEA_KAEA_K@?$equal_to@X@std@@QEBA_NAEA_K0@Z 0000000180060b1c     collisioncodegen_CollisionGeometry.obj
 0002:00002b24       $unwind$??$_Seek_wrapped@V?$_Vector_iterator@V?$_Vector_val@U?$_Simple_types@_K@std@@@std@@@std@@AEAPEA_K@std@@YAXAEAV?$_Vector_iterator@V?$_Vector_val@U?$_Simple_types@_K@std@@@std@@@0@AEAPEA_K@Z 0000000180060b24     collisioncodegen_CollisionGeometry.obj
 0002:00002b2c       $unwind$??$_Seek_wrapped@V?$_Vector_iterator@V?$_Vector_val@U?$_Simple_types@_K@std@@@std@@@std@@AEBQEA_K@std@@YAXAEAV?$_Vector_iterator@V?$_Vector_val@U?$_Simple_types@_K@std@@@std@@@0@AEBQEA_K@Z 0000000180060b2c     collisioncodegen_CollisionGeometry.obj
 0002:00002b34       $unwind$??1?$_Uninitialized_backout_al@V?$allocator@_K@std@@@std@@QEAA@XZ 0000000180060b34     collisioncodegen_CollisionGeometry.obj
 0002:00002b3c       $unwind$??$_Emplace_back@_K@?$_Uninitialized_backout_al@V?$allocator@_K@std@@@std@@QEAAX$$QEA_K@Z 0000000180060b3c     collisioncodegen_CollisionGeometry.obj
 0002:00002b44       $unwind$??$_Zero_range@PEA_K@std@@YAPEA_KQEA_K0@Z 0000000180060b44     collisioncodegen_CollisionGeometry.obj
 0002:00002b4c       $unwind$??$_Emplace_back@$$V@?$_Uninitialized_backout_al@V?$allocator@_K@std@@@std@@QEAAXXZ 0000000180060b4c     collisioncodegen_CollisionGeometry.obj
 0002:00002b54       $unwind$??$_Copy_memmove@PEANPEAN@std@@YAPEANPEAN00@Z 0000000180060b54     collisioncodegen_CollisionGeometry.obj
 0002:00002b5c       $unwind$??1?$_Uninitialized_backout_al@V?$allocator@N@std@@@std@@QEAA@XZ 0000000180060b5c     collisioncodegen_CollisionGeometry.obj
 0002:00002b64       $unwind$??$_Emplace_back@N@?$_Uninitialized_backout_al@V?$allocator@N@std@@@std@@QEAAX$$QEAN@Z 0000000180060b64     collisioncodegen_CollisionGeometry.obj
 0002:00002b6c       $unwind$??1?$_Uninitialized_backout_al@V?$allocator@V?$vector@_KV?$allocator@_K@std@@@std@@@std@@@std@@QEAA@XZ 0000000180060b6c     collisioncodegen_CollisionGeometry.obj
 0002:00002b74       $unwind$??$_Emplace_back@$$V@?$_Uninitialized_backout_al@V?$allocator@V?$vector@_KV?$allocator@_K@std@@@std@@@std@@@std@@QEAAXXZ 0000000180060b74     collisioncodegen_CollisionGeometry.obj
 0002:00002b7c       $unwind$??$_Uninitialized_move@PEAV?$vector@_KV?$allocator@_K@std@@@std@@V?$allocator@V?$vector@_KV?$allocator@_K@std@@@std@@@2@@std@@YAPEAV?$vector@_KV?$allocator@_K@std@@@0@QEAV10@0PEAV10@AEAV?$allocator@V?$vector@_KV?$allocator@_K@std@@@std@@@0@@Z 0000000180060b7c     collisioncodegen_CollisionGeometry.obj
 0002:00002b8c       $cppxdata$??$_Uninitialized_move@PEAV?$vector@_KV?$allocator@_K@std@@@std@@V?$allocator@V?$vector@_KV?$allocator@_K@std@@@std@@@2@@std@@YAPEAV?$vector@_KV?$allocator@_K@std@@@0@QEAV10@0PEAV10@AEAV?$allocator@V?$vector@_KV?$allocator@_K@std@@@std@@@0@@Z 0000000180060b8c     collisioncodegen_CollisionGeometry.obj
 0002:00002b95       $stateUnwindMap$??$_Uninitialized_move@PEAV?$vector@_KV?$allocator@_K@std@@@std@@V?$allocator@V?$vector@_KV?$allocator@_K@std@@@std@@@2@@std@@YAPEAV?$vector@_KV?$allocator@_K@std@@@0@QEAV10@0PEAV10@AEAV?$allocator@V?$vector@_KV?$allocator@_K@std@@@std@@@0@@Z 0000000180060b95     collisioncodegen_CollisionGeometry.obj
 0002:00002b9b       $ip2state$??$_Uninitialized_move@PEAV?$vector@_KV?$allocator@_K@std@@@std@@V?$allocator@V?$vector@_KV?$allocator@_K@std@@@std@@@2@@std@@YAPEAV?$vector@_KV?$allocator@_K@std@@@0@QEAV10@0PEAV10@AEAV?$allocator@V?$vector@_KV?$allocator@_K@std@@@std@@@0@@Z 0000000180060b9b     collisioncodegen_CollisionGeometry.obj
 0002:00002ba4       $unwind$?dtor$0@?0???$_Uninitialized_move@PEAV?$vector@_KV?$allocator@_K@std@@@std@@V?$allocator@V?$vector@_KV?$allocator@_K@std@@@std@@@2@@std@@YAPEAV?$vector@_KV?$allocator@_K@std@@@0@QEAV10@0PEAV10@AEAV?$allocator@V?$vector@_KV?$allocator@_K@std@@@std@@@0@@Z@4HA 0000000180060ba4     collisioncodegen_CollisionGeometry.obj
 0002:00002bac       $unwind$??$?RAEANAEAN@?$less@X@std@@QEBA_NAEAN0@Z 0000000180060bac     collisioncodegen_CollisionGeometry.obj
 0002:00002bb4       $unwind$??$_Insertion_sort_unchecked@PEA_KU?$less@X@std@@@std@@YAPEA_KQEA_K0U?$less@X@0@@Z 0000000180060bb4     collisioncodegen_CollisionGeometry.obj
 0002:00002bbc       $unwind$??$_Make_heap_unchecked@PEA_KU?$less@X@std@@@std@@YAXPEA_K0U?$less@X@0@@Z 0000000180060bbc     collisioncodegen_CollisionGeometry.obj
 0002:00002bc4       $unwind$??$_Sort_heap_unchecked@PEA_KU?$less@X@std@@@std@@YAXPEA_K0U?$less@X@0@@Z 0000000180060bc4     collisioncodegen_CollisionGeometry.obj
 0002:00002bcc       $unwind$??$_Partition_by_median_guess_unchecked@PEA_KU?$less@X@std@@@std@@YA?AU?$pair@PEA_KPEA_K@0@PEA_K0U?$less@X@0@@Z 0000000180060bcc     collisioncodegen_CollisionGeometry.obj
 0002:00002bd4       $unwind$??$construct@_K_K@?$_Default_allocator_traits@V?$allocator@_K@std@@@std@@SAXAEAV?$allocator@_K@1@QEA_K$$QEA_K@Z 0000000180060bd4     collisioncodegen_CollisionGeometry.obj
 0002:00002bdc       $unwind$??$construct@_K$$V@?$_Default_allocator_traits@V?$allocator@_K@std@@@std@@SAXAEAV?$allocator@_K@1@QEA_K@Z 0000000180060bdc     collisioncodegen_CollisionGeometry.obj
 0002:00002be4       $unwind$??$construct@V?$vector@_KV?$allocator@_K@std@@@std@@$$V@?$_Default_allocator_traits@V?$allocator@V?$vector@_KV?$allocator@_K@std@@@std@@@std@@@std@@SAXAEAV?$allocator@V?$vector@_KV?$allocator@_K@std@@@std@@@1@QEAV?$vector@_KV?$allocator@_K@std@@@1@@Z 0000000180060be4     collisioncodegen_CollisionGeometry.obj
 0002:00002bec       $unwind$??$_Emplace_back@V?$vector@_KV?$allocator@_K@std@@@std@@@?$_Uninitialized_backout_al@V?$allocator@V?$vector@_KV?$allocator@_K@std@@@std@@@std@@@std@@QEAAX$$QEAV?$vector@_KV?$allocator@_K@std@@@1@@Z 0000000180060bec     collisioncodegen_CollisionGeometry.obj
 0002:00002bf4       $unwind$??$?RAEA_KAEA_K@?$less@X@std@@QEBA_NAEA_K0@Z 0000000180060bf4     collisioncodegen_CollisionGeometry.obj
 0002:00002bfc       $unwind$??$_Move_backward_unchecked@PEA_KPEA_K@std@@YAPEA_KPEA_K00@Z 0000000180060bfc     collisioncodegen_CollisionGeometry.obj
 0002:00002c04       $unwind$??$_Pop_heap_hole_by_index@PEA_K_KU?$less@X@std@@@std@@YAXPEA_K_J1$$QEA_KU?$less@X@0@@Z 0000000180060c04     collisioncodegen_CollisionGeometry.obj
 0002:00002c0c       $unwind$??$_Pop_heap_unchecked@PEA_KU?$less@X@std@@@std@@YAXPEA_K0U?$less@X@0@@Z 0000000180060c0c     collisioncodegen_CollisionGeometry.obj
 0002:00002c14       $unwind$??$_Guess_median_unchecked@PEA_KU?$less@X@std@@@std@@YAXPEA_K00U?$less@X@0@@Z 0000000180060c14     collisioncodegen_CollisionGeometry.obj
 0002:00002c1c       $unwind$??$iter_swap@PEA_KPEA_K@std@@YAXPEA_K0@Z 0000000180060c1c     collisioncodegen_CollisionGeometry.obj
 0002:00002c24       $unwind$??$?0AEAPEA_KAEAPEA_K$0A@@?$pair@PEA_KPEA_K@std@@QEAA@AEAPEA_K0@Z 0000000180060c24     collisioncodegen_CollisionGeometry.obj
 0002:00002c2c       $unwind$??$construct@V?$vector@_KV?$allocator@_K@std@@@std@@V12@@?$_Default_allocator_traits@V?$allocator@V?$vector@_KV?$allocator@_K@std@@@std@@@std@@@std@@SAXAEAV?$allocator@V?$vector@_KV?$allocator@_K@std@@@std@@@1@QEAV?$vector@_KV?$allocator@_K@std@@@1@$$QEAV31@@Z 0000000180060c2c     collisioncodegen_CollisionGeometry.obj
 0002:00002c34       $unwind$??$?0$$V@?$_Compressed_pair@V?$allocator@_K@std@@V?$_Vector_val@U?$_Simple_types@_K@std@@@2@$00@std@@QEAA@U_Zero_then_variadic_args_t@1@@Z 0000000180060c34     collisioncodegen_CollisionGeometry.obj
 0002:00002c3c       $unwind$??$_Copy_backward_memmove@PEA_KPEA_K@std@@YAPEA_KPEA_K00@Z 0000000180060c3c     collisioncodegen_CollisionGeometry.obj
 0002:00002c44       $unwind$??$_Push_heap_by_index@PEA_K_KU?$less@X@std@@@std@@YAXPEA_K_J1$$QEA_KU?$less@X@0@@Z 0000000180060c44     collisioncodegen_CollisionGeometry.obj
 0002:00002c4c       $unwind$??$_Pop_heap_hole_unchecked@PEA_K_KU?$less@X@std@@@std@@YAXPEA_K00$$QEA_KU?$less@X@0@@Z 0000000180060c4c     collisioncodegen_CollisionGeometry.obj
 0002:00002c54       $unwind$??$_Med3_unchecked@PEA_KU?$less@X@std@@@std@@YAXPEA_K00U?$less@X@0@@Z 0000000180060c54     collisioncodegen_CollisionGeometry.obj
 0002:00002c5c       $unwind$??$swap@_K$0A@@std@@YAXAEA_K0@Z 0000000180060c5c     collisioncodegen_CollisionGeometry.obj
 0002:00002c64       $unwind$??$exchange@PEA_K$$T@std@@YAPEA_KAEAPEA_K$$QEA$$T@Z 0000000180060c64     collisioncodegen_CollisionGeometry.obj
 0002:00002c6c       $unwind$??$?0V?$allocator@_K@std@@PEA_KPEA_KPEA_K@?$_Compressed_pair@V?$allocator@_K@std@@V?$_Vector_val@U?$_Simple_types@_K@std@@@2@$00@std@@QEAA@U_One_then_variadic_args_t@1@$$QEAV?$allocator@_K@1@$$QEAPEA_K22@Z 0000000180060c6c     collisioncodegen_CollisionGeometry.obj
 0002:00002c74       $unwind$?copy@?$_Char_traits@DH@std@@SAPEADQEADQEBD_K@Z 0000000180060c74     collisioncodegen_api.obj
 0002:00002c84       $cppxdata$?copy@?$_Char_traits@DH@std@@SAPEADQEADQEBD_K@Z 0000000180060c84     collisioncodegen_api.obj
 0002:00002c89       $ip2state$?copy@?$_Char_traits@DH@std@@SAPEADQEADQEBD_K@Z 0000000180060c89     collisioncodegen_api.obj
 0002:00002c8c       $unwind$?move@?$_Char_traits@DH@std@@SAPEADQEADQEBD_K@Z 0000000180060c8c     collisioncodegen_api.obj
 0002:00002c9c       $cppxdata$?move@?$_Char_traits@DH@std@@SAPEADQEADQEBD_K@Z 0000000180060c9c     collisioncodegen_api.obj
 0002:00002ca1       $ip2state$?move@?$_Char_traits@DH@std@@SAPEADQEADQEBD_K@Z 0000000180060ca1     collisioncodegen_api.obj
 0002:00002ca4       $unwind$?_Xlen_string@std@@YAXXZ 0000000180060ca4     collisioncodegen_api.obj
 0002:00002cac       $unwind$?deallocate@?$allocator@D@std@@QEAAXQEAD_K@Z 0000000180060cac     collisioncodegen_api.obj
 0002:00002cb4       $unwind$?allocate@?$allocator@D@std@@QEAAPEAD_K@Z 0000000180060cb4     collisioncodegen_api.obj
 0002:00002cbc       $unwind$??0?$_String_val@U?$_Simple_types@D@std@@@std@@QEAA@XZ 0000000180060cbc     collisioncodegen_api.obj
 0002:00002cc4       $unwind$?_Myptr@?$_String_val@U?$_Simple_types@D@std@@@std@@QEAAPEADXZ 0000000180060cc4     collisioncodegen_api.obj
 0002:00002ccc       $unwind$?_Myptr@?$_String_val@U?$_Simple_types@D@std@@@std@@QEBAPEBDXZ 0000000180060ccc     collisioncodegen_api.obj
 0002:00002cd4       $unwind$?_Large_string_engaged@?$_String_val@U?$_Simple_types@D@std@@@std@@QEBA_NXZ 0000000180060cd4     collisioncodegen_api.obj
 0002:00002cdc       $unwind$??1?$_String_val@U?$_Simple_types@D@std@@@std@@QEAA@XZ 0000000180060cdc     collisioncodegen_api.obj
 0002:00002ce4       $unwind$??0?$basic_string@DU?$char_traits@D@std@@V?$allocator@D@2@@std@@QEAA@QEBD@Z 0000000180060ce4     collisioncodegen_api.obj
 0002:00002cf4       $cppxdata$??0?$basic_string@DU?$char_traits@D@std@@V?$allocator@D@2@@std@@QEAA@QEBD@Z 0000000180060cf4     collisioncodegen_api.obj
 0002:00002cfd       $stateUnwindMap$??0?$basic_string@DU?$char_traits@D@std@@V?$allocator@D@2@@std@@QEAA@QEBD@Z 0000000180060cfd     collisioncodegen_api.obj
 0002:00002d03       $ip2state$??0?$basic_string@DU?$char_traits@D@std@@V?$allocator@D@2@@std@@QEAA@QEBD@Z 0000000180060d03     collisioncodegen_api.obj
 0002:00002d0c       $unwind$?dtor$0@?0???0?$basic_string@DU?$char_traits@D@std@@V?$allocator@D@2@@std@@QEAA@QEBD@Z@4HA 0000000180060d0c     collisioncodegen_api.obj
 0002:00002d14       $unwind$??1?$basic_string@DU?$char_traits@D@std@@V?$allocator@D@2@@std@@QEAA@XZ 0000000180060d14     collisioncodegen_api.obj
 0002:00002d1c       $unwind$?assign@?$basic_string@DU?$char_traits@D@std@@V?$allocator@D@2@@std@@QEAAAEAV12@QEBD_K@Z 0000000180060d1c     collisioncodegen_api.obj
 0002:00002d24       $unwind$?assign@?$basic_string@DU?$char_traits@D@std@@V?$allocator@D@2@@std@@QEAAAEAV12@QEBD@Z 0000000180060d24     collisioncodegen_api.obj
 0002:00002d2c       $unwind$?c_str@?$basic_string@DU?$char_traits@D@std@@V?$allocator@D@2@@std@@QEBAPEBDXZ 0000000180060d2c     collisioncodegen_api.obj
 0002:00002d34       $unwind$?max_size@?$basic_string@DU?$char_traits@D@std@@V?$allocator@D@2@@std@@QEBA_KXZ 0000000180060d34     collisioncodegen_api.obj
 0002:00002d3c       $unwind$?_Calculate_growth@?$basic_string@DU?$char_traits@D@std@@V?$allocator@D@2@@std@@CA_K_K00@Z 0000000180060d3c     collisioncodegen_api.obj
 0002:00002d44       $unwind$?_Calculate_growth@?$basic_string@DU?$char_traits@D@std@@V?$allocator@D@2@@std@@AEBA_K_K@Z 0000000180060d44     collisioncodegen_api.obj
 0002:00002d4c       $unwind$?_Tidy_init@?$basic_string@DU?$char_traits@D@std@@V?$allocator@D@2@@std@@AEAAXXZ 0000000180060d4c     collisioncodegen_api.obj
 0002:00002d54       $unwind$?_Tidy_deallocate@?$basic_string@DU?$char_traits@D@std@@V?$allocator@D@2@@std@@AEAAXXZ 0000000180060d54     collisioncodegen_api.obj
 0002:00002d64       $cppxdata$?_Tidy_deallocate@?$basic_string@DU?$char_traits@D@std@@V?$allocator@D@2@@std@@AEAAXXZ 0000000180060d64     collisioncodegen_api.obj
 0002:00002d69       $ip2state$?_Tidy_deallocate@?$basic_string@DU?$char_traits@D@std@@V?$allocator@D@2@@std@@AEAAXXZ 0000000180060d69     collisioncodegen_api.obj
 0002:00002d6c       $unwind$?_Getal@?$basic_string@DU?$char_traits@D@std@@V?$allocator@D@2@@std@@AEAAAEAV?$allocator@D@2@XZ 0000000180060d6c     collisioncodegen_api.obj
 0002:00002d74       $unwind$?_Getal@?$basic_string@DU?$char_traits@D@std@@V?$allocator@D@2@@std@@AEBAAEBV?$allocator@D@2@XZ 0000000180060d74     collisioncodegen_api.obj
 0002:00002d7c       $unwind$??1?$_Compressed_pair@V?$allocator@D@std@@V?$_String_val@U?$_Simple_types@D@std@@@2@$00@std@@QEAA@XZ 0000000180060d7c     collisioncodegen_api.obj
 0002:00002d84       $unwind$??0CollisionGeometry@shared_robotics@@QEAA@NNN@Z 0000000180060d84     collisioncodegen_api.obj
 0002:00002d94       $cppxdata$??0CollisionGeometry@shared_robotics@@QEAA@NNN@Z 0000000180060d94     collisioncodegen_api.obj
 0002:00002d9d       $stateUnwindMap$??0CollisionGeometry@shared_robotics@@QEAA@NNN@Z 0000000180060d9d     collisioncodegen_api.obj
 0002:00002dad       $ip2state$??0CollisionGeometry@shared_robotics@@QEAA@NNN@Z 0000000180060dad     collisioncodegen_api.obj
 0002:00002db8       $unwind$?dtor$0@?0???0CollisionGeometry@shared_robotics@@QEAA@NNN@Z@4HA 0000000180060db8     collisioncodegen_api.obj
 0002:00002dc0       $unwind$?dtor$1@?0???0CollisionGeometry@shared_robotics@@QEAA@NNN@Z@4HA 0000000180060dc0     collisioncodegen_api.obj
 0002:00002dc8       $unwind$?dtor$2@?0???0CollisionGeometry@shared_robotics@@QEAA@NNN@Z@4HA 0000000180060dc8     collisioncodegen_api.obj
 0002:00002dd0       $unwind$??0CollisionGeometry@shared_robotics@@QEAA@N@Z 0000000180060dd0     collisioncodegen_api.obj
 0002:00002de0       $cppxdata$??0CollisionGeometry@shared_robotics@@QEAA@N@Z 0000000180060de0     collisioncodegen_api.obj
 0002:00002de9       $stateUnwindMap$??0CollisionGeometry@shared_robotics@@QEAA@N@Z 0000000180060de9     collisioncodegen_api.obj
 0002:00002df9       $ip2state$??0CollisionGeometry@shared_robotics@@QEAA@N@Z 0000000180060df9     collisioncodegen_api.obj
 0002:00002e04       $unwind$?dtor$0@?0???0CollisionGeometry@shared_robotics@@QEAA@N@Z@4HA 0000000180060e04     collisioncodegen_api.obj
 0002:00002e0c       $unwind$?dtor$1@?0???0CollisionGeometry@shared_robotics@@QEAA@N@Z@4HA 0000000180060e0c     collisioncodegen_api.obj
 0002:00002e14       $unwind$?dtor$2@?0???0CollisionGeometry@shared_robotics@@QEAA@N@Z@4HA 0000000180060e14     collisioncodegen_api.obj
 0002:00002e1c       $unwind$??0CollisionGeometry@shared_robotics@@QEAA@NN@Z 0000000180060e1c     collisioncodegen_api.obj
 0002:00002e2c       $cppxdata$??0CollisionGeometry@shared_robotics@@QEAA@NN@Z 0000000180060e2c     collisioncodegen_api.obj
 0002:00002e35       $stateUnwindMap$??0CollisionGeometry@shared_robotics@@QEAA@NN@Z 0000000180060e35     collisioncodegen_api.obj
 0002:00002e45       $ip2state$??0CollisionGeometry@shared_robotics@@QEAA@NN@Z 0000000180060e45     collisioncodegen_api.obj
 0002:00002e50       $unwind$?dtor$0@?0???0CollisionGeometry@shared_robotics@@QEAA@NN@Z@4HA 0000000180060e50     collisioncodegen_api.obj
 0002:00002e58       $unwind$?dtor$1@?0???0CollisionGeometry@shared_robotics@@QEAA@NN@Z@4HA 0000000180060e58     collisioncodegen_api.obj
 0002:00002e60       $unwind$?dtor$2@?0???0CollisionGeometry@shared_robotics@@QEAA@NN@Z@4HA 0000000180060e60     collisioncodegen_api.obj
 0002:00002e68       $unwind$??0CollisionGeometry@shared_robotics@@QEAA@PEANH_N@Z 0000000180060e68     collisioncodegen_api.obj
 0002:00002e7c       $cppxdata$??0CollisionGeometry@shared_robotics@@QEAA@PEANH_N@Z 0000000180060e7c     collisioncodegen_api.obj
 0002:00002e85       $stateUnwindMap$??0CollisionGeometry@shared_robotics@@QEAA@PEANH_N@Z 0000000180060e85     collisioncodegen_api.obj
 0002:00002e95       $ip2state$??0CollisionGeometry@shared_robotics@@QEAA@PEANH_N@Z 0000000180060e95     collisioncodegen_api.obj
 0002:00002ea4       $unwind$?dtor$0@?0???0CollisionGeometry@shared_robotics@@QEAA@PEANH_N@Z@4HA 0000000180060ea4     collisioncodegen_api.obj
 0002:00002eac       $unwind$?dtor$1@?0???0CollisionGeometry@shared_robotics@@QEAA@PEANH_N@Z@4HA 0000000180060eac     collisioncodegen_api.obj
 0002:00002eb4       $unwind$?dtor$2@?0???0CollisionGeometry@shared_robotics@@QEAA@PEANH_N@Z@4HA 0000000180060eb4     collisioncodegen_api.obj
 0002:00002ebc       $unwind$?getType@CollisionGeometry@shared_robotics@@QEBA?AV?$basic_string@DU?$char_traits@D@std@@V?$allocator@D@2@@std@@XZ 0000000180060ebc     collisioncodegen_api.obj
 0002:00002ec4       $unwind$?allocate@?$allocator@U_ccd_vec3_t@@@std@@QEAAPEAU_ccd_vec3_t@@_K@Z 0000000180060ec4     collisioncodegen_api.obj
 0002:00002ecc       $unwind$??0?$vector@U_ccd_vec3_t@@V?$allocator@U_ccd_vec3_t@@@std@@@std@@QEAA@XZ 0000000180060ecc     collisioncodegen_api.obj
 0002:00002ed4       $unwind$??0?$vector@U_ccd_vec3_t@@V?$allocator@U_ccd_vec3_t@@@std@@@std@@QEAA@AEBV01@@Z 0000000180060ed4     collisioncodegen_api.obj
 0002:00002ee4       $cppxdata$??0?$vector@U_ccd_vec3_t@@V?$allocator@U_ccd_vec3_t@@@std@@@std@@QEAA@AEBV01@@Z 0000000180060ee4     collisioncodegen_api.obj
 0002:00002eed       $stateUnwindMap$??0?$vector@U_ccd_vec3_t@@V?$allocator@U_ccd_vec3_t@@@std@@@std@@QEAA@AEBV01@@Z 0000000180060eed     collisioncodegen_api.obj
 0002:00002ef3       $ip2state$??0?$vector@U_ccd_vec3_t@@V?$allocator@U_ccd_vec3_t@@@std@@@std@@QEAA@AEBV01@@Z 0000000180060ef3     collisioncodegen_api.obj
 0002:00002efc       $unwind$?dtor$0@?0???0?$vector@U_ccd_vec3_t@@V?$allocator@U_ccd_vec3_t@@@std@@@std@@QEAA@AEBV01@@Z@4HA 0000000180060efc     collisioncodegen_api.obj
 0002:00002f04       $unwind$?push_back@?$vector@U_ccd_vec3_t@@V?$allocator@U_ccd_vec3_t@@@std@@@std@@QEAAXAEBU_ccd_vec3_t@@@Z 0000000180060f04     collisioncodegen_api.obj
 0002:00002f0c       $unwind$?size@?$vector@U_ccd_vec3_t@@V?$allocator@U_ccd_vec3_t@@@std@@@std@@QEBA_KXZ 0000000180060f0c     collisioncodegen_api.obj
 0002:00002f14       $unwind$?max_size@?$vector@U_ccd_vec3_t@@V?$allocator@U_ccd_vec3_t@@@std@@@std@@QEBA_KXZ 0000000180060f14     collisioncodegen_api.obj
 0002:00002f1c       $unwind$?capacity@?$vector@U_ccd_vec3_t@@V?$allocator@U_ccd_vec3_t@@@std@@@std@@QEBA_KXZ 0000000180060f1c     collisioncodegen_api.obj
 0002:00002f24       $unwind$??A?$vector@U_ccd_vec3_t@@V?$allocator@U_ccd_vec3_t@@@std@@@std@@QEAAAEAU_ccd_vec3_t@@_K@Z 0000000180060f24     collisioncodegen_api.obj
 0002:00002f2c       $unwind$?_Umove@?$vector@U_ccd_vec3_t@@V?$allocator@U_ccd_vec3_t@@@std@@@std@@AEAAPEAU_ccd_vec3_t@@PEAU3@00@Z 0000000180060f2c     collisioncodegen_api.obj
 0002:00002f34       $unwind$?_Umove_if_noexcept1@?$vector@U_ccd_vec3_t@@V?$allocator@U_ccd_vec3_t@@@std@@@std@@AEAAXPEAU_ccd_vec3_t@@00U?$integral_constant@_N$00@2@@Z 0000000180060f34     collisioncodegen_api.obj
 0002:00002f3c       $unwind$?_Umove_if_noexcept@?$vector@U_ccd_vec3_t@@V?$allocator@U_ccd_vec3_t@@@std@@@std@@AEAAXPEAU_ccd_vec3_t@@00@Z 0000000180060f3c     collisioncodegen_api.obj
 0002:00002f44       $unwind$?_Calculate_growth@?$vector@U_ccd_vec3_t@@V?$allocator@U_ccd_vec3_t@@@std@@@std@@AEBA_K_K@Z 0000000180060f44     collisioncodegen_api.obj
 0002:00002f4c       $unwind$?_Buy_raw@?$vector@U_ccd_vec3_t@@V?$allocator@U_ccd_vec3_t@@@std@@@std@@AEAAX_K@Z 0000000180060f4c     collisioncodegen_api.obj
 0002:00002f54       $unwind$?_Change_array@?$vector@U_ccd_vec3_t@@V?$allocator@U_ccd_vec3_t@@@std@@@std@@AEAAXQEAU_ccd_vec3_t@@_K1@Z 0000000180060f54     collisioncodegen_api.obj
 0002:00002f5c       $unwind$?_Xlength@?$vector@U_ccd_vec3_t@@V?$allocator@U_ccd_vec3_t@@@std@@@std@@CAXXZ 0000000180060f5c     collisioncodegen_api.obj
 0002:00002f64       $unwind$?_Getal@?$vector@U_ccd_vec3_t@@V?$allocator@U_ccd_vec3_t@@@std@@@std@@AEBAAEBV?$allocator@U_ccd_vec3_t@@@2@XZ 0000000180060f64     collisioncodegen_api.obj
 0002:00002f6c       $unwind$?allocate@?$allocator@U_idx_vec3_t@shared_robotics@@@std@@QEAAPEAU_idx_vec3_t@shared_robotics@@_K@Z 0000000180060f6c     collisioncodegen_api.obj
 0002:00002f74       $unwind$??0?$vector@U_idx_vec3_t@shared_robotics@@V?$allocator@U_idx_vec3_t@shared_robotics@@@std@@@std@@QEAA@XZ 0000000180060f74     collisioncodegen_api.obj
 0002:00002f7c       $unwind$??0?$vector@U_idx_vec3_t@shared_robotics@@V?$allocator@U_idx_vec3_t@shared_robotics@@@std@@@std@@QEAA@AEBV01@@Z 0000000180060f7c     collisioncodegen_api.obj
 0002:00002f8c       $cppxdata$??0?$vector@U_idx_vec3_t@shared_robotics@@V?$allocator@U_idx_vec3_t@shared_robotics@@@std@@@std@@QEAA@AEBV01@@Z 0000000180060f8c     collisioncodegen_api.obj
 0002:00002f95       $stateUnwindMap$??0?$vector@U_idx_vec3_t@shared_robotics@@V?$allocator@U_idx_vec3_t@shared_robotics@@@std@@@std@@QEAA@AEBV01@@Z 0000000180060f95     collisioncodegen_api.obj
 0002:00002f9b       $ip2state$??0?$vector@U_idx_vec3_t@shared_robotics@@V?$allocator@U_idx_vec3_t@shared_robotics@@@std@@@std@@QEAA@AEBV01@@Z 0000000180060f9b     collisioncodegen_api.obj
 0002:00002fa4       $unwind$?dtor$0@?0???0?$vector@U_idx_vec3_t@shared_robotics@@V?$allocator@U_idx_vec3_t@shared_robotics@@@std@@@std@@QEAA@AEBV01@@Z@4HA 0000000180060fa4     collisioncodegen_api.obj
 0002:00002fac       $unwind$?_Buy_raw@?$vector@U_idx_vec3_t@shared_robotics@@V?$allocator@U_idx_vec3_t@shared_robotics@@@std@@@std@@AEAAX_K@Z 0000000180060fac     collisioncodegen_api.obj
 0002:00002fb4       $unwind$?_Getal@?$vector@U_idx_vec3_t@shared_robotics@@V?$allocator@U_idx_vec3_t@shared_robotics@@@std@@@std@@AEBAAEBV?$allocator@U_idx_vec3_t@shared_robotics@@@2@XZ 0000000180060fb4     collisioncodegen_api.obj
 0002:00002fbc       $unwind$??0?$vector@V?$vector@_KV?$allocator@_K@std@@@std@@V?$allocator@V?$vector@_KV?$allocator@_K@std@@@std@@@2@@std@@QEAA@XZ 0000000180060fbc     collisioncodegen_api.obj
 0002:00002fc4       $unwind$??0?$vector@V?$vector@_KV?$allocator@_K@std@@@std@@V?$allocator@V?$vector@_KV?$allocator@_K@std@@@std@@@2@@std@@QEAA@AEBV01@@Z 0000000180060fc4     collisioncodegen_api.obj
 0002:00002fd4       $cppxdata$??0?$vector@V?$vector@_KV?$allocator@_K@std@@@std@@V?$allocator@V?$vector@_KV?$allocator@_K@std@@@std@@@2@@std@@QEAA@AEBV01@@Z 0000000180060fd4     collisioncodegen_api.obj
 0002:00002fdd       $stateUnwindMap$??0?$vector@V?$vector@_KV?$allocator@_K@std@@@std@@V?$allocator@V?$vector@_KV?$allocator@_K@std@@@std@@@2@@std@@QEAA@AEBV01@@Z 0000000180060fdd     collisioncodegen_api.obj
 0002:00002fe3       $ip2state$??0?$vector@V?$vector@_KV?$allocator@_K@std@@@std@@V?$allocator@V?$vector@_KV?$allocator@_K@std@@@std@@@2@@std@@QEAA@AEBV01@@Z 0000000180060fe3     collisioncodegen_api.obj
 0002:00002fec       $unwind$?dtor$0@?0???0?$vector@V?$vector@_KV?$allocator@_K@std@@@std@@V?$allocator@V?$vector@_KV?$allocator@_K@std@@@std@@@2@@std@@QEAA@AEBV01@@Z@4HA 0000000180060fec     collisioncodegen_api.obj
 0002:00002ff4       $unwind$?_Buy_raw@?$vector@V?$vector@_KV?$allocator@_K@std@@@std@@V?$allocator@V?$vector@_KV?$allocator@_K@std@@@std@@@2@@std@@AEAAX_K@Z 0000000180060ff4     collisioncodegen_api.obj
 0002:00002ffc       $unwind$?initializePositionAndOrientation@CollisionGeometry@shared_robotics@@AEAAXXZ 0000000180060ffc     collisioncodegen_api.obj
 0002:00003004       $unwind$??0CollisionGeometry@shared_robotics@@QEAA@AEBV01@@Z 0000000180061004     collisioncodegen_api.obj
 0002:00003018       $cppxdata$??0CollisionGeometry@shared_robotics@@QEAA@AEBV01@@Z 0000000180061018     collisioncodegen_api.obj
 0002:00003021       $stateUnwindMap$??0CollisionGeometry@shared_robotics@@QEAA@AEBV01@@Z 0000000180061021     collisioncodegen_api.obj
 0002:0000302c       $ip2state$??0CollisionGeometry@shared_robotics@@QEAA@AEBV01@@Z 000000018006102c     collisioncodegen_api.obj
 0002:00003038       $unwind$?dtor$0@?0???0CollisionGeometry@shared_robotics@@QEAA@AEBV01@@Z@4HA 0000000180061038     collisioncodegen_api.obj
 0002:00003040       $unwind$?dtor$1@?0???0CollisionGeometry@shared_robotics@@QEAA@AEBV01@@Z@4HA 0000000180061040     collisioncodegen_api.obj
 0002:00003048       $unwind$collisioncodegen_makeBox 0000000180061048     collisioncodegen_api.obj
 0002:00003058       $cppxdata$collisioncodegen_makeBox 0000000180061058     collisioncodegen_api.obj
 0002:00003061       $stateUnwindMap$collisioncodegen_makeBox 0000000180061061     collisioncodegen_api.obj
 0002:00003067       $ip2state$collisioncodegen_makeBox 0000000180061067     collisioncodegen_api.obj
 0002:0000306e       $cppxdata$collisioncodegen_makeSphere 000000018006106e     collisioncodegen_api.obj
 0002:00003077       $cppxdata$collisioncodegen_makeCylinder 0000000180061077     collisioncodegen_api.obj
 0002:00003080       $unwind$collisioncodegen_makeBox$dtor$0 0000000180061080     collisioncodegen_api.obj
 0002:00003088       $unwind$collisioncodegen_makeSphere 0000000180061088     collisioncodegen_api.obj
 0002:00003098       $stateUnwindMap$collisioncodegen_makeSphere 0000000180061098     collisioncodegen_api.obj
 0002:0000309e       $ip2state$collisioncodegen_makeSphere 000000018006109e     collisioncodegen_api.obj
 0002:000030a5       $stateUnwindMap$collisioncodegen_makeCylinder 00000001800610a5     collisioncodegen_api.obj
 0002:000030ab       $cppxdata$collisioncodegen_makeCapsule 00000001800610ab     collisioncodegen_api.obj
 0002:000030b4       $unwind$collisioncodegen_makeSphere$dtor$0 00000001800610b4     collisioncodegen_api.obj
 0002:000030bc       $unwind$collisioncodegen_makeCylinder 00000001800610bc     collisioncodegen_api.obj
 0002:000030cc       $ip2state$collisioncodegen_makeCylinder 00000001800610cc     collisioncodegen_api.obj
 0002:000030d3       $cppxdata$collisioncodegen_makeMesh 00000001800610d3     collisioncodegen_api.obj
 0002:000030dc       $unwind$collisioncodegen_makeCylinder$dtor$0 00000001800610dc     collisioncodegen_api.obj
 0002:000030e4       $unwind$collisioncodegen_makeCapsule 00000001800610e4     collisioncodegen_api.obj
 0002:000030f4       $stateUnwindMap$collisioncodegen_makeCapsule 00000001800610f4     collisioncodegen_api.obj
 0002:000030fa       $ip2state$collisioncodegen_makeCapsule 00000001800610fa     collisioncodegen_api.obj
 0002:00003101       $stateUnwindMap$collisioncodegen_makeMesh 0000000180061101     collisioncodegen_api.obj
 0002:00003107       $cppxdata$collisioncodegen_copyGeometry 0000000180061107     collisioncodegen_api.obj
 0002:00003110       $unwind$collisioncodegen_makeCapsule$dtor$0 0000000180061110     collisioncodegen_api.obj
 0002:00003118       $unwind$collisioncodegen_makeMesh 0000000180061118     collisioncodegen_api.obj
 0002:00003128       $ip2state$collisioncodegen_makeMesh 0000000180061128     collisioncodegen_api.obj
 0002:0000312f       $cppxdata$collisioncodegen_getType 000000018006112f     collisioncodegen_api.obj
 0002:00003138       $unwind$collisioncodegen_makeMesh$dtor$0 0000000180061138     collisioncodegen_api.obj
 0002:00003140       $unwind$collisioncodegen_intersect 0000000180061140     collisioncodegen_api.obj
 0002:00003148       $unwind$collisioncodegen_destructGeometry 0000000180061148     collisioncodegen_api.obj
 0002:00003150       $unwind$collisioncodegen_copyGeometry 0000000180061150     collisioncodegen_api.obj
 0002:00003160       $stateUnwindMap$collisioncodegen_copyGeometry 0000000180061160     collisioncodegen_api.obj
 0002:00003166       $ip2state$collisioncodegen_copyGeometry 0000000180061166     collisioncodegen_api.obj
 0002:0000316d       $stateUnwindMap$collisioncodegen_getType 000000018006116d     collisioncodegen_api.obj
 0002:00003174       $unwind$collisioncodegen_copyGeometry$dtor$0 0000000180061174     collisioncodegen_api.obj
 0002:0000317c       $unwind$collisioncodegen_getVertices 000000018006117c     collisioncodegen_api.obj
 0002:00003184       $unwind$collisioncodegen_getNumVertices 0000000180061184     collisioncodegen_api.obj
 0002:0000318c       $unwind$collisioncodegen_getX 000000018006118c     collisioncodegen_api.obj
 0002:00003194       $unwind$collisioncodegen_getY 0000000180061194     collisioncodegen_api.obj
 0002:0000319c       $unwind$collisioncodegen_getZ 000000018006119c     collisioncodegen_api.obj
 0002:000031a4       $unwind$collisioncodegen_getRadius 00000001800611a4     collisioncodegen_api.obj
 0002:000031ac       $unwind$collisioncodegen_getLength 00000001800611ac     collisioncodegen_api.obj
 0002:000031b4       $unwind$collisioncodegen_getType 00000001800611b4     collisioncodegen_api.obj
 0002:000031c8       $ip2state$collisioncodegen_getType 00000001800611c8     collisioncodegen_api.obj
 0002:000031d0       $unwind$collisioncodegen_getType$dtor$0 00000001800611d0     collisioncodegen_api.obj
 0002:000031d8       $unwind$??$?0V?$allocator@V?$vector@_KV?$allocator@_K@std@@@std@@@std@@$$V@?$_Compressed_pair@V?$allocator@V?$vector@_KV?$allocator@_K@std@@@std@@@std@@V?$_Vector_val@U?$_Simple_types@V?$vector@_KV?$allocator@_K@std@@@std@@@std@@@2@$00@std@@QEAA@U_One_then_variadic_args_t@1@$$QEAV?$allocator@V?$vector@_KV?$allocator@_K@std@@@std@@@1@@Z 00000001800611d8     collisioncodegen_api.obj
 0002:000031e0       $unwind$??0?$vector@_KV?$allocator@_K@std@@@std@@QEAA@AEBV01@@Z 00000001800611e0     collisioncodegen_api.obj
 0002:000031f0       $cppxdata$??0?$vector@_KV?$allocator@_K@std@@@std@@QEAA@AEBV01@@Z 00000001800611f0     collisioncodegen_api.obj
 0002:000031f9       $stateUnwindMap$??0?$vector@_KV?$allocator@_K@std@@@std@@QEAA@AEBV01@@Z 00000001800611f9     collisioncodegen_api.obj
 0002:000031ff       $ip2state$??0?$vector@_KV?$allocator@_K@std@@@std@@QEAA@AEBV01@@Z 00000001800611ff     collisioncodegen_api.obj
 0002:00003208       $unwind$?dtor$0@?0???0?$vector@_KV?$allocator@_K@std@@@std@@QEAA@AEBV01@@Z@4HA 0000000180061208     collisioncodegen_api.obj
 0002:00003210       $unwind$?_Buy_raw@?$vector@_KV?$allocator@_K@std@@@std@@AEAAX_K@Z 0000000180061210     collisioncodegen_api.obj
 0002:00003218       $unwind$??1?$_Tidy_guard@V?$vector@V?$vector@_KV?$allocator@_K@std@@@std@@V?$allocator@V?$vector@_KV?$allocator@_K@std@@@std@@@2@@std@@@std@@QEAA@XZ 0000000180061218     collisioncodegen_api.obj
 0002:00003220       $unwind$??$_Ucopy@PEAV?$vector@_KV?$allocator@_K@std@@@std@@@?$vector@V?$vector@_KV?$allocator@_K@std@@@std@@V?$allocator@V?$vector@_KV?$allocator@_K@std@@@std@@@2@@std@@AEAAPEAV?$vector@_KV?$allocator@_K@std@@@1@PEAV21@00@Z 0000000180061220     collisioncodegen_api.obj
 0002:00003228       $unwind$??$?0$$V@?$_Compressed_pair@V?$allocator@V?$vector@_KV?$allocator@_K@std@@@std@@@std@@V?$_Vector_val@U?$_Simple_types@V?$vector@_KV?$allocator@_K@std@@@std@@@std@@@2@$00@std@@QEAA@U_Zero_then_variadic_args_t@1@@Z 0000000180061228     collisioncodegen_api.obj
 0002:00003230       $unwind$??$?0V?$allocator@U_idx_vec3_t@shared_robotics@@@std@@$$V@?$_Compressed_pair@V?$allocator@U_idx_vec3_t@shared_robotics@@@std@@V?$_Vector_val@U?$_Simple_types@U_idx_vec3_t@shared_robotics@@@std@@@2@$00@std@@QEAA@U_One_then_variadic_args_t@1@$$QEAV?$allocator@U_idx_vec3_t@shared_robotics@@@1@@Z 0000000180061230     collisioncodegen_api.obj
 0002:00003238       $unwind$??1?$_Tidy_guard@V?$vector@U_idx_vec3_t@shared_robotics@@V?$allocator@U_idx_vec3_t@shared_robotics@@@std@@@std@@@std@@QEAA@XZ 0000000180061238     collisioncodegen_api.obj
 0002:00003240       $unwind$??$_Ucopy@PEAU_idx_vec3_t@shared_robotics@@@?$vector@U_idx_vec3_t@shared_robotics@@V?$allocator@U_idx_vec3_t@shared_robotics@@@std@@@std@@AEAAPEAU_idx_vec3_t@shared_robotics@@PEAU23@00@Z 0000000180061240     collisioncodegen_api.obj
 0002:00003248       $unwind$??$?0$$V@?$_Compressed_pair@V?$allocator@U_idx_vec3_t@shared_robotics@@@std@@V?$_Vector_val@U?$_Simple_types@U_idx_vec3_t@shared_robotics@@@std@@@2@$00@std@@QEAA@U_Zero_then_variadic_args_t@1@@Z 0000000180061248     collisioncodegen_api.obj
 0002:00003250       $unwind$??$emplace_back@AEBU_ccd_vec3_t@@@?$vector@U_ccd_vec3_t@@V?$allocator@U_ccd_vec3_t@@@std@@@std@@QEAA?A_TAEBU_ccd_vec3_t@@@Z 0000000180061250     collisioncodegen_api.obj
 0002:00003258       $unwind$??$_Emplace_back_with_unused_capacity@AEBU_ccd_vec3_t@@@?$vector@U_ccd_vec3_t@@V?$allocator@U_ccd_vec3_t@@@std@@@std@@AEAA?A_TAEBU_ccd_vec3_t@@@Z 0000000180061258     collisioncodegen_api.obj
 0002:00003260       $unwind$??$construct@U_ccd_vec3_t@@AEBU1@@?$_Default_allocator_traits@V?$allocator@U_ccd_vec3_t@@@std@@@std@@SAXAEAV?$allocator@U_ccd_vec3_t@@@1@QEAU_ccd_vec3_t@@AEBU3@@Z 0000000180061260     collisioncodegen_api.obj
 0002:0000326c       $unwind$??$_Emplace_reallocate@AEBU_ccd_vec3_t@@@?$vector@U_ccd_vec3_t@@V?$allocator@U_ccd_vec3_t@@@std@@@std@@QEAAPEAU_ccd_vec3_t@@QEAU2@AEBU2@@Z 000000018006126c     collisioncodegen_api.obj
 0002:0000327c       $cppxdata$??$_Emplace_reallocate@AEBU_ccd_vec3_t@@@?$vector@U_ccd_vec3_t@@V?$allocator@U_ccd_vec3_t@@@std@@@std@@QEAAPEAU_ccd_vec3_t@@QEAU2@AEBU2@@Z 000000018006127c     collisioncodegen_api.obj
 0002:00003289       $stateUnwindMap$??$_Emplace_reallocate@AEBU_ccd_vec3_t@@@?$vector@U_ccd_vec3_t@@V?$allocator@U_ccd_vec3_t@@@std@@@std@@QEAAPEAU_ccd_vec3_t@@QEAU2@AEBU2@@Z 0000000180061289     collisioncodegen_api.obj
 0002:0000328c       $tryMap$??$_Emplace_reallocate@AEBU_ccd_vec3_t@@@?$vector@U_ccd_vec3_t@@V?$allocator@U_ccd_vec3_t@@@std@@@std@@QEAAPEAU_ccd_vec3_t@@QEAU2@AEBU2@@Z 000000018006128c     collisioncodegen_api.obj
 0002:00003294       $handlerMap$??$_Emplace_reallocate@AEBU_ccd_vec3_t@@@?$vector@U_ccd_vec3_t@@V?$allocator@U_ccd_vec3_t@@@std@@@std@@QEAAPEAU_ccd_vec3_t@@QEAU2@AEBU2@@Z 0000000180061294     collisioncodegen_api.obj
 0002:0000329b       $ip2state$??$_Emplace_reallocate@AEBU_ccd_vec3_t@@@?$vector@U_ccd_vec3_t@@V?$allocator@U_ccd_vec3_t@@@std@@@std@@QEAAPEAU_ccd_vec3_t@@QEAU2@AEBU2@@Z 000000018006129b     collisioncodegen_api.obj
 0002:000032a4       $unwind$?catch$0@?0???$_Emplace_reallocate@AEBU_ccd_vec3_t@@@?$vector@U_ccd_vec3_t@@V?$allocator@U_ccd_vec3_t@@@std@@@std@@QEAAPEAU_ccd_vec3_t@@QEAU2@AEBU2@@Z@4HA 00000001800612a4     collisioncodegen_api.obj
 0002:000032ac       $unwind$??$?0V?$allocator@U_ccd_vec3_t@@@std@@$$V@?$_Compressed_pair@V?$allocator@U_ccd_vec3_t@@@std@@V?$_Vector_val@U?$_Simple_types@U_ccd_vec3_t@@@std@@@2@$00@std@@QEAA@U_One_then_variadic_args_t@1@$$QEAV?$allocator@U_ccd_vec3_t@@@1@@Z 00000001800612ac     collisioncodegen_api.obj
 0002:000032b4       $unwind$??1?$_Tidy_guard@V?$vector@U_ccd_vec3_t@@V?$allocator@U_ccd_vec3_t@@@std@@@std@@@std@@QEAA@XZ 00000001800612b4     collisioncodegen_api.obj
 0002:000032bc       $unwind$??$_Ucopy@PEAU_ccd_vec3_t@@@?$vector@U_ccd_vec3_t@@V?$allocator@U_ccd_vec3_t@@@std@@@std@@AEAAPEAU_ccd_vec3_t@@PEAU2@00@Z 00000001800612bc     collisioncodegen_api.obj
 0002:000032c4       $unwind$??$?0$$V@?$_Compressed_pair@V?$allocator@U_ccd_vec3_t@@@std@@V?$_Vector_val@U?$_Simple_types@U_ccd_vec3_t@@@std@@@2@$00@std@@QEAA@U_Zero_then_variadic_args_t@1@@Z 00000001800612c4     collisioncodegen_api.obj
 0002:000032cc       $unwind$??$?0$$V@?$_Compressed_pair@V?$allocator@D@std@@V?$_String_val@U?$_Simple_types@D@std@@@2@$00@std@@QEAA@U_Zero_then_variadic_args_t@1@@Z 00000001800612cc     collisioncodegen_api.obj
 0002:000032d4       $unwind$??R<lambda_66f57f934f28d61049862f64df852ff0>@@QEBA@QEAD_KQEBD@Z 00000001800612d4     collisioncodegen_api.obj
 0002:000032dc       $unwind$??$_Reallocate_for@V<lambda_66f57f934f28d61049862f64df852ff0>@@PEBD@?$basic_string@DU?$char_traits@D@std@@V?$allocator@D@2@@std@@AEAAAEAV01@_KV<lambda_66f57f934f28d61049862f64df852ff0>@@PEBD@Z 00000001800612dc     collisioncodegen_api.obj
 0002:000032e4       $unwind$??$_Construct_in_place@PEADAEBQEAD@std@@YAXAEAPEADAEBQEAD@Z 00000001800612e4     collisioncodegen_api.obj
 0002:000032ec       $unwind$??$max@_K@std@@YAAEB_KAEB_K0@Z 00000001800612ec     collisioncodegen_api.obj
 0002:000032f4       $unwind$??$_Get_size_of_n@$00@std@@YA_K_K@Z 00000001800612f4     collisioncodegen_api.obj
 0002:000032fc       $unwind$??$_Uninitialized_copy@PEAV?$vector@_KV?$allocator@_K@std@@@std@@V?$allocator@V?$vector@_KV?$allocator@_K@std@@@std@@@2@@std@@YAPEAV?$vector@_KV?$allocator@_K@std@@@0@QEAV10@0PEAV10@AEAV?$allocator@V?$vector@_KV?$allocator@_K@std@@@std@@@0@@Z 00000001800612fc     collisioncodegen_api.obj
 0002:0000330c       $cppxdata$??$_Uninitialized_copy@PEAV?$vector@_KV?$allocator@_K@std@@@std@@V?$allocator@V?$vector@_KV?$allocator@_K@std@@@std@@@2@@std@@YAPEAV?$vector@_KV?$allocator@_K@std@@@0@QEAV10@0PEAV10@AEAV?$allocator@V?$vector@_KV?$allocator@_K@std@@@std@@@0@@Z 000000018006130c     collisioncodegen_api.obj
 0002:00003315       $stateUnwindMap$??$_Uninitialized_copy@PEAV?$vector@_KV?$allocator@_K@std@@@std@@V?$allocator@V?$vector@_KV?$allocator@_K@std@@@std@@@2@@std@@YAPEAV?$vector@_KV?$allocator@_K@std@@@0@QEAV10@0PEAV10@AEAV?$allocator@V?$vector@_KV?$allocator@_K@std@@@std@@@0@@Z 0000000180061315     collisioncodegen_api.obj
 0002:0000331b       $ip2state$??$_Uninitialized_copy@PEAV?$vector@_KV?$allocator@_K@std@@@std@@V?$allocator@V?$vector@_KV?$allocator@_K@std@@@std@@@2@@std@@YAPEAV?$vector@_KV?$allocator@_K@std@@@0@QEAV10@0PEAV10@AEAV?$allocator@V?$vector@_KV?$allocator@_K@std@@@std@@@0@@Z 000000018006131b     collisioncodegen_api.obj
 0002:00003324       $unwind$?dtor$0@?0???$_Uninitialized_copy@PEAV?$vector@_KV?$allocator@_K@std@@@std@@V?$allocator@V?$vector@_KV?$allocator@_K@std@@@std@@@2@@std@@YAPEAV?$vector@_KV?$allocator@_K@std@@@0@QEAV10@0PEAV10@AEAV?$allocator@V?$vector@_KV?$allocator@_K@std@@@std@@@0@@Z@4HA 0000000180061324     collisioncodegen_api.obj
 0002:0000332c       $unwind$??$_Uninitialized_copy@PEAU_idx_vec3_t@shared_robotics@@V?$allocator@U_idx_vec3_t@shared_robotics@@@std@@@std@@YAPEAU_idx_vec3_t@shared_robotics@@QEAU12@0PEAU12@AEAV?$allocator@U_idx_vec3_t@shared_robotics@@@0@@Z 000000018006132c     collisioncodegen_api.obj
 0002:0000333c       $cppxdata$??$_Uninitialized_copy@PEAU_idx_vec3_t@shared_robotics@@V?$allocator@U_idx_vec3_t@shared_robotics@@@std@@@std@@YAPEAU_idx_vec3_t@shared_robotics@@QEAU12@0PEAU12@AEAV?$allocator@U_idx_vec3_t@shared_robotics@@@0@@Z 000000018006133c     collisioncodegen_api.obj
 0002:00003345       $stateUnwindMap$??$_Uninitialized_copy@PEAU_idx_vec3_t@shared_robotics@@V?$allocator@U_idx_vec3_t@shared_robotics@@@std@@@std@@YAPEAU_idx_vec3_t@shared_robotics@@QEAU12@0PEAU12@AEAV?$allocator@U_idx_vec3_t@shared_robotics@@@0@@Z 0000000180061345     collisioncodegen_api.obj
 0002:0000334b       $ip2state$??$_Uninitialized_copy@PEAU_idx_vec3_t@shared_robotics@@V?$allocator@U_idx_vec3_t@shared_robotics@@@std@@@std@@YAPEAU_idx_vec3_t@shared_robotics@@QEAU12@0PEAU12@AEAV?$allocator@U_idx_vec3_t@shared_robotics@@@0@@Z 000000018006134b     collisioncodegen_api.obj
 0002:00003350       $unwind$?dtor$0@?0???$_Uninitialized_copy@PEAU_idx_vec3_t@shared_robotics@@V?$allocator@U_idx_vec3_t@shared_robotics@@@std@@@std@@YAPEAU_idx_vec3_t@shared_robotics@@QEAU12@0PEAU12@AEAV?$allocator@U_idx_vec3_t@shared_robotics@@@0@@Z@4HA 0000000180061350     collisioncodegen_api.obj
 0002:00003358       $unwind$??$_Uninitialized_copy@PEAU_ccd_vec3_t@@V?$allocator@U_ccd_vec3_t@@@std@@@std@@YAPEAU_ccd_vec3_t@@QEAU1@0PEAU1@AEAV?$allocator@U_ccd_vec3_t@@@0@@Z 0000000180061358     collisioncodegen_api.obj
 0002:00003368       $cppxdata$??$_Uninitialized_copy@PEAU_ccd_vec3_t@@V?$allocator@U_ccd_vec3_t@@@std@@@std@@YAPEAU_ccd_vec3_t@@QEAU1@0PEAU1@AEAV?$allocator@U_ccd_vec3_t@@@0@@Z 0000000180061368     collisioncodegen_api.obj
 0002:00003371       $stateUnwindMap$??$_Uninitialized_copy@PEAU_ccd_vec3_t@@V?$allocator@U_ccd_vec3_t@@@std@@@std@@YAPEAU_ccd_vec3_t@@QEAU1@0PEAU1@AEAV?$allocator@U_ccd_vec3_t@@@0@@Z 0000000180061371     collisioncodegen_api.obj
 0002:00003377       $ip2state$??$_Uninitialized_copy@PEAU_ccd_vec3_t@@V?$allocator@U_ccd_vec3_t@@@std@@@std@@YAPEAU_ccd_vec3_t@@QEAU1@0PEAU1@AEAV?$allocator@U_ccd_vec3_t@@@0@@Z 0000000180061377     collisioncodegen_api.obj
 0002:0000337c       $unwind$?dtor$0@?0???$_Uninitialized_copy@PEAU_ccd_vec3_t@@V?$allocator@U_ccd_vec3_t@@@std@@@std@@YAPEAU_ccd_vec3_t@@QEAU1@0PEAU1@AEAV?$allocator@U_ccd_vec3_t@@@0@@Z@4HA 000000018006137c     collisioncodegen_api.obj
 0002:00003384       $unwind$??$_Uninitialized_move@PEAU_ccd_vec3_t@@V?$allocator@U_ccd_vec3_t@@@std@@@std@@YAPEAU_ccd_vec3_t@@QEAU1@0PEAU1@AEAV?$allocator@U_ccd_vec3_t@@@0@@Z 0000000180061384     collisioncodegen_api.obj
 0002:00003394       $cppxdata$??$_Uninitialized_move@PEAU_ccd_vec3_t@@V?$allocator@U_ccd_vec3_t@@@std@@@std@@YAPEAU_ccd_vec3_t@@QEAU1@0PEAU1@AEAV?$allocator@U_ccd_vec3_t@@@0@@Z 0000000180061394     collisioncodegen_api.obj
 0002:0000339d       $stateUnwindMap$??$_Uninitialized_move@PEAU_ccd_vec3_t@@V?$allocator@U_ccd_vec3_t@@@std@@@std@@YAPEAU_ccd_vec3_t@@QEAU1@0PEAU1@AEAV?$allocator@U_ccd_vec3_t@@@0@@Z 000000018006139d     collisioncodegen_api.obj
 0002:000033a3       $ip2state$??$_Uninitialized_move@PEAU_ccd_vec3_t@@V?$allocator@U_ccd_vec3_t@@@std@@@std@@YAPEAU_ccd_vec3_t@@QEAU1@0PEAU1@AEAV?$allocator@U_ccd_vec3_t@@@0@@Z 00000001800613a3     collisioncodegen_api.obj
 0002:000033a8       $unwind$?dtor$0@?0???$_Uninitialized_move@PEAU_ccd_vec3_t@@V?$allocator@U_ccd_vec3_t@@@std@@@std@@YAPEAU_ccd_vec3_t@@QEAU1@0PEAU1@AEAV?$allocator@U_ccd_vec3_t@@@0@@Z@4HA 00000001800613a8     collisioncodegen_api.obj
 0002:000033b0       $unwind$??$_Emplace_back@AEAV?$vector@_KV?$allocator@_K@std@@@std@@@?$_Uninitialized_backout_al@V?$allocator@V?$vector@_KV?$allocator@_K@std@@@std@@@std@@@std@@QEAAXAEAV?$vector@_KV?$allocator@_K@std@@@1@@Z 00000001800613b0     collisioncodegen_api.obj
 0002:000033b8       $unwind$??$_Copy_memmove@PEAU_idx_vec3_t@shared_robotics@@PEAU12@@std@@YAPEAU_idx_vec3_t@shared_robotics@@PEAU12@00@Z 00000001800613b8     collisioncodegen_api.obj
 0002:000033c0       $unwind$??1?$_Uninitialized_backout_al@V?$allocator@U_idx_vec3_t@shared_robotics@@@std@@@std@@QEAA@XZ 00000001800613c0     collisioncodegen_api.obj
 0002:000033c8       $unwind$??$_Emplace_back@AEAU_idx_vec3_t@shared_robotics@@@?$_Uninitialized_backout_al@V?$allocator@U_idx_vec3_t@shared_robotics@@@std@@@std@@QEAAXAEAU_idx_vec3_t@shared_robotics@@@Z 00000001800613c8     collisioncodegen_api.obj
 0002:000033d0       $unwind$??$_Copy_memmove@PEAU_ccd_vec3_t@@PEAU1@@std@@YAPEAU_ccd_vec3_t@@PEAU1@00@Z 00000001800613d0     collisioncodegen_api.obj
 0002:000033d8       $unwind$??1?$_Uninitialized_backout_al@V?$allocator@U_ccd_vec3_t@@@std@@@std@@QEAA@XZ 00000001800613d8     collisioncodegen_api.obj
 0002:000033e0       $unwind$??$_Emplace_back@AEAU_ccd_vec3_t@@@?$_Uninitialized_backout_al@V?$allocator@U_ccd_vec3_t@@@std@@@std@@QEAAXAEAU_ccd_vec3_t@@@Z 00000001800613e0     collisioncodegen_api.obj
 0002:000033e8       $unwind$??$_Emplace_back@U_ccd_vec3_t@@@?$_Uninitialized_backout_al@V?$allocator@U_ccd_vec3_t@@@std@@@std@@QEAAX$$QEAU_ccd_vec3_t@@@Z 00000001800613e8     collisioncodegen_api.obj
 0002:000033f0       $unwind$??$construct@V?$vector@_KV?$allocator@_K@std@@@std@@AEAV12@@?$_Default_allocator_traits@V?$allocator@V?$vector@_KV?$allocator@_K@std@@@std@@@std@@@std@@SAXAEAV?$allocator@V?$vector@_KV?$allocator@_K@std@@@std@@@1@QEAV?$vector@_KV?$allocator@_K@std@@@1@AEAV31@@Z 00000001800613f0     collisioncodegen_api.obj
 0002:000033f8       $unwind$??$construct@U_idx_vec3_t@shared_robotics@@AEAU12@@?$_Default_allocator_traits@V?$allocator@U_idx_vec3_t@shared_robotics@@@std@@@std@@SAXAEAV?$allocator@U_idx_vec3_t@shared_robotics@@@1@QEAU_idx_vec3_t@shared_robotics@@AEAU34@@Z 00000001800613f8     collisioncodegen_api.obj
 0002:00003404       $unwind$??$construct@U_ccd_vec3_t@@AEAU1@@?$_Default_allocator_traits@V?$allocator@U_ccd_vec3_t@@@std@@@std@@SAXAEAV?$allocator@U_ccd_vec3_t@@@1@QEAU_ccd_vec3_t@@AEAU3@@Z 0000000180061404     collisioncodegen_api.obj
 0002:00003410       $unwind$??$construct@U_ccd_vec3_t@@U1@@?$_Default_allocator_traits@V?$allocator@U_ccd_vec3_t@@@std@@@std@@SAXAEAV?$allocator@U_ccd_vec3_t@@@1@QEAU_ccd_vec3_t@@$$QEAU3@@Z 0000000180061410     collisioncodegen_api.obj
 0002:0000341c       $unwind$??$?0V?$allocator@_K@std@@$$V@?$_Compressed_pair@V?$allocator@_K@std@@V?$_Vector_val@U?$_Simple_types@_K@std@@@2@$00@std@@QEAA@U_One_then_variadic_args_t@1@$$QEAV?$allocator@_K@1@@Z 000000018006141c     collisioncodegen_api.obj
 0002:00003424       $unwind$??1?$_Tidy_guard@V?$vector@_KV?$allocator@_K@std@@@std@@@std@@QEAA@XZ 0000000180061424     collisioncodegen_api.obj
 0002:0000342c       $unwind$??$_Ucopy@PEA_K@?$vector@_KV?$allocator@_K@std@@@std@@AEAAPEA_KPEA_K00@Z 000000018006142c     collisioncodegen_api.obj
 0002:00003434       $unwind$??$_Uninitialized_copy@PEA_KV?$allocator@_K@std@@@std@@YAPEA_KQEA_K0PEA_KAEAV?$allocator@_K@0@@Z 0000000180061434     collisioncodegen_api.obj
 0002:00003444       $cppxdata$??$_Uninitialized_copy@PEA_KV?$allocator@_K@std@@@std@@YAPEA_KQEA_K0PEA_KAEAV?$allocator@_K@0@@Z 0000000180061444     collisioncodegen_api.obj
 0002:0000344d       $stateUnwindMap$??$_Uninitialized_copy@PEA_KV?$allocator@_K@std@@@std@@YAPEA_KQEA_K0PEA_KAEAV?$allocator@_K@0@@Z 000000018006144d     collisioncodegen_api.obj
 0002:00003453       $ip2state$??$_Uninitialized_copy@PEA_KV?$allocator@_K@std@@@std@@YAPEA_KQEA_K0PEA_KAEAV?$allocator@_K@0@@Z 0000000180061453     collisioncodegen_api.obj
 0002:00003458       $unwind$?dtor$0@?0???$_Uninitialized_copy@PEA_KV?$allocator@_K@std@@@std@@YAPEA_KQEA_K0PEA_KAEAV?$allocator@_K@0@@Z@4HA 0000000180061458     collisioncodegen_api.obj
 0002:00003460       $unwind$??$_Emplace_back@AEA_K@?$_Uninitialized_backout_al@V?$allocator@_K@std@@@std@@QEAAXAEA_K@Z 0000000180061460     collisioncodegen_api.obj
 0002:00003468       $unwind$??$construct@_KAEA_K@?$_Default_allocator_traits@V?$allocator@_K@std@@@std@@SAXAEAV?$allocator@_K@1@QEA_KAEA_K@Z 0000000180061468     collisioncodegen_api.obj
 0002:00003470       $unwind$ccdEq              0000000180061470     collisioncodegen_ccdExtensions.obj
 0002:00003478       $unwind$ccdVec3Eq          0000000180061478     collisioncodegen_ccdExtensions.obj
 0002:00003480       $unwind$ccdVec3Len2        0000000180061480     collisioncodegen_ccdExtensions.obj
 0002:00003488       $unwind$ccdVec3Copy        0000000180061488     collisioncodegen_ccdExtensions.obj
 0002:00003490       $unwind$ccdVec3Dot         0000000180061490     collisioncodegen_ccdExtensions.obj
 0002:00003498       $unwind$?ccdDistance@shared_robotics@@YANPEBX0PEBU_ccd_t@@PEAU_ccd_vec3_t@@2@Z 0000000180061498     collisioncodegen_ccdExtensions.obj
 0002:000034ac       $unwind$?distanceToOrigin@shared_robotics@@YANPEAU_ccd_simplex_t@@AEAPEAU_ccd_vec3_t@@@Z 00000001800614ac     collisioncodegen_ccdExtensions.obj
 0002:000034c0       $unwind$?extractWitnessPoints@shared_robotics@@YAXPEBU_ccd_simplex_t@@PEBU_ccd_vec3_t@@PEAU3@2@Z 00000001800614c0     collisioncodegen_ccdExtensions.obj
 0002:000034cc       $unwind$?interpolateBetweenTwoSupportPoints@shared_robotics@@YAXAEAPEBU_ccd_simplex_t@@AEAPEBU_ccd_vec3_t@@AEAPEAU3@2@Z 00000001800614cc     collisioncodegen_ccdExtensions.obj
 0002:000034e0       $unwind$?interpolateAmongThreeSupportPoints@shared_robotics@@YAXAEAPEBU_ccd_simplex_t@@AEAPEBU_ccd_vec3_t@@AEAPEAU3@2@Z 00000001800614e0     collisioncodegen_ccdExtensions.obj
 0002:000034f4       $unwind$?barycentricCoordinates@@YAXPEBU_ccd_vec3_t@@000PEAU1@@Z 00000001800614f4     collisioncodegen_ccdExtensions.obj
 0002:00003504       $unwind$intersect          0000000180061504     collisioncodegen_checkCollision.obj
 0002:00003514       $unwind$updatePose         0000000180061514     collisioncodegen_checkCollision.obj
 0002:0000351c       $unwind$?fSupport@@YAXPEBXPEBU_ccd_vec3_t@@PEAU1@@Z 000000018006151c     collisioncodegen_checkCollision.obj
 0002:00003524       $unwind$getBitfieldFromFloat 0000000180061524     half_type.obj
 0002:0000352c       $unwind$getFloatFromBitfield 000000018006152c     half_type.obj
 0002:00003534       $unwind$getHalfFromBitfield 0000000180061534     half_type.obj
 0002:0000353c       $unwind$halfToFloat        000000018006153c     half_type.obj
 0002:00003544       $unwind$halfToDouble       0000000180061544     half_type.obj
 0002:0000354c       $unwind$floatToHalf        000000018006154c     half_type.obj
 0002:00003554       $unwind$doubleToHalf       0000000180061554     half_type.obj
 0002:0000355c       $unwind$__report_securityfailure 000000018006155c     MSVCRT:gs_report.obj
 0002:00003564       $unwind$__report_securityfailureEx 0000000180061564     MSVCRT:gs_report.obj
 0002:0000356c       $unwind$__report_rangecheckfailure 000000018006156c     MSVCRT:gs_report.obj
 0002:00003574       $unwind$__report_gsfailure 0000000180061574     MSVCRT:gs_report.obj
 0002:0000357c       $unwind$capture_current_context 000000018006157c     MSVCRT:gs_report.obj
 0002:00003588       $unwind$capture_previous_context 0000000180061588     MSVCRT:gs_report.obj
 0002:00003594       $unwind$__raise_securityfailure 0000000180061594     MSVCRT:gs_report.obj
 0002:0000359c       $unwind$__GSHandlerCheckCommon 000000018006159c     MSVCRT:gshandler.obj
 0002:000035a4       $unwind$__GSHandlerCheck   00000001800615a4     MSVCRT:gshandler.obj
 0002:000035b0       $xdatasym                  00000001800615b0     MSVCRT:amdsecgs.obj
 0002:000035b8       $xdatasym                  00000001800615b8     MSVCRT:chkstk.obj
 0002:000035c0       $unwind$??2@YAPEAX_K@Z     00000001800615c0     MSVCRT:new_scalar.obj
 0002:000035c8       $unwind$__GSHandlerCheck_EH4 00000001800615c8     MSVCRT:gshandlereh4.obj
 0002:000035e0       $unwind$??_Gtype_info@@UEAAPEAXI@Z 00000001800615e0     MSVCRT:std_type_info_static.obj
 0002:000035e8       $unwind$?dllmain_crt_process_attach@@YAHQEAUHINSTANCE__@@QEAX@Z 00000001800615e8     MSVCRT:dll_dllmain.obj
 0002:00003624       $unwind$?fin$0@?0??dllmain_crt_process_attach@@YAHQEAUHINSTANCE__@@QEAX@Z@4HA 0000000180061624     MSVCRT:dll_dllmain.obj
 0002:0000362c       $unwind$?dllmain_crt_process_detach@@YAH_N@Z 000000018006162c     MSVCRT:dll_dllmain.obj
 0002:00003680       $unwind$?fin$0@?0??dllmain_crt_process_detach@@YAH_N@Z@4HA 0000000180061680     MSVCRT:dll_dllmain.obj
 0002:00003688       $unwind$?fin$1@?0??dllmain_crt_process_detach@@YAH_N@Z@4HA 0000000180061688     MSVCRT:dll_dllmain.obj
 0002:00003690       $unwind$?dllmain_crt_dispatch@@YAHQEAUHINSTANCE__@@KQEAX@Z 0000000180061690     MSVCRT:dll_dllmain.obj
 0002:00003698       $unwind$?dllmain_dispatch@@YAHQEAUHINSTANCE__@@KQEAX@Z 0000000180061698     MSVCRT:dll_dllmain.obj
 0002:000036c0       $unwind$?filt$0@?0??dllmain_dispatch@@YAHQEAUHINSTANCE__@@KQEAX@Z@4HA 00000001800616c0     MSVCRT:dll_dllmain.obj
 0002:000036c8       $unwind$_DllMainCRTStartup 00000001800616c8     MSVCRT:dll_dllmain.obj
 0002:000036d8       $unwind$?__scrt_throw_std_bad_alloc@@YAXXZ 00000001800616d8     MSVCRT:throw_bad_alloc.obj
 0002:000036e0       $unwind$?__scrt_throw_std_bad_array_new_length@@YAXXZ 00000001800616e0     MSVCRT:throw_bad_alloc.obj
 0002:000036e8       $unwind$__security_init_cookie 00000001800616e8     MSVCRT:gs_support.obj
 0002:000036f4       $unwind$__get_entropy      00000001800616f4     MSVCRT:gs_support.obj
 0002:000036fc       $unwind$DllMain            00000001800616fc     MSVCRT:dll_dllmain_stub.obj
 0002:00003704       $unwind$__scrt_initialize_default_local_stdio_options 0000000180061704     MSVCRT:default_local_stdio_options.obj
 0002:0000370c       $unwind$atexit             000000018006170c     MSVCRT:utility.obj
 0002:00003714       $unwind$_onexit            0000000180061714     MSVCRT:utility.obj
 0002:0000371c       $unwind$__scrt_is_nonwritable_in_current_image 000000018006171c     MSVCRT:utility.obj
 0002:0000373c       $unwind$__scrt_is_nonwritable_in_current_image$filt$0 000000018006173c     MSVCRT:utility.obj
 0002:00003744       $unwind$__scrt_acquire_startup_lock 0000000180061744     MSVCRT:utility.obj
 0002:0000374c       $unwind$__scrt_release_startup_lock 000000018006174c     MSVCRT:utility.obj
 0002:00003754       $unwind$__scrt_initialize_crt 0000000180061754     MSVCRT:utility.obj
 0002:0000375c       $unwind$__scrt_uninitialize_crt 000000018006175c     MSVCRT:utility.obj
 0002:00003764       $unwind$__scrt_initialize_onexit_tables 0000000180061764     MSVCRT:utility.obj
 0002:0000376c       $unwind$__scrt_dllmain_exception_filter 000000018006176c     MSVCRT:utility.obj
 0002:00003780       $unwind$__scrt_dllmain_before_initialize_c 0000000180061780     MSVCRT:utility.obj
 0002:00003788       $unwind$__scrt_dllmain_after_initialize_c 0000000180061788     MSVCRT:utility.obj
 0002:00003790       $unwind$__scrt_dllmain_uninitialize_c 0000000180061790     MSVCRT:utility.obj
 0002:00003798       $unwind$__scrt_dllmain_uninitialize_critical 0000000180061798     MSVCRT:utility.obj
 0002:000037a0       $unwind$__scrt_dllmain_crt_thread_attach 00000001800617a0     MSVCRT:utility.obj
 0002:000037a8       $unwind$__scrt_dllmain_crt_thread_detach 00000001800617a8     MSVCRT:utility.obj
 0002:000037b0       $unwind$?configure_argv@__scrt_narrow_argv_policy@@SAHXZ 00000001800617b0     MSVCRT:utility.obj
 0002:000037b8       $unwind$__scrt_get_show_window_mode 00000001800617b8     MSVCRT:utility_desktop.obj
 0002:000037c0       $unwind$__scrt_is_managed_app 00000001800617c0     MSVCRT:utility_desktop.obj
 0002:000037c8       $unwind$__scrt_fastfail    00000001800617c8     MSVCRT:utility_desktop.obj
 0002:000037d8       $unwind$__scrt_unhandled_exception_filter 00000001800617d8     MSVCRT:utility_desktop.obj
 0002:000037e4       $unwind$_RTC_Initialize    00000001800617e4     MSVCRT:initsect.obj
 0002:000037f0       $unwind$_RTC_Terminate     00000001800617f0     MSVCRT:initsect.obj
 0002:000037fc       $unwind$__castguard_check_failure_os_handled 00000001800617fc     MSVCRT:guard_support.obj
 0002:00003804       $unwind$__castguard_slow_path_check_os_handled 0000000180061804     MSVCRT:guard_support.obj
 0002:0000380c       $unwind$__isa_available_init 000000018006180c     MSVCRT:cpu_disp.obj
 0002:00003820       $xdatasym                  0000000180061820     MSVCRT:guard_dispatch.obj
 0002:00003828       $xdatasym                  0000000180061828     MSVCRT:guard_xfg_dispatch.obj
 0002:00003920       .edata                     0000000180061920     Modele_3D_sfun.exp
 0002:00003948       rgpv                       0000000180061948     Modele_3D_sfun.exp
 0002:000039a8       rgszName                   00000001800619a8     Modele_3D_sfun.exp
 0002:00003a08       rgwOrd                     0000000180061a08     Modele_3D_sfun.exp
 0002:00003a38       szName                     0000000180061a38     Modele_3D_sfun.exp
 0002:00003a4e       $N00001                    0000000180061a4e     Modele_3D_sfun.exp
 0002:00003a57       $N00002                    0000000180061a57     Modele_3D_sfun.exp
 0002:00003a64       $N00003                    0000000180061a64     Modele_3D_sfun.exp
 0002:00003a77       $N00004                    0000000180061a77     Modele_3D_sfun.exp
 0002:00003a87       $N00005                    0000000180061a87     Modele_3D_sfun.exp
 0002:00003a99       $N00006                    0000000180061a99     Modele_3D_sfun.exp
 0002:00003aa8       $N00007                    0000000180061aa8     Modele_3D_sfun.exp
 0002:00003ab8       $N00008                    0000000180061ab8     Modele_3D_sfun.exp
 0002:00003aca       $N00009                    0000000180061aca     Modele_3D_sfun.exp
 0002:00003ad7       $N00010                    0000000180061ad7     Modele_3D_sfun.exp
 0002:00003ae4       $N00011                    0000000180061ae4     Modele_3D_sfun.exp
 0002:00003af3       $N00012                    0000000180061af3     Modele_3D_sfun.exp
 0002:00003b00       $N00013                    0000000180061b00     Modele_3D_sfun.exp
 0002:00003b0d       $N00014                    0000000180061b0d     Modele_3D_sfun.exp
 0002:00003b1b       $N00015                    0000000180061b1b     Modele_3D_sfun.exp
 0002:00003b25       $N00016                    0000000180061b25     Modele_3D_sfun.exp
 0002:00003b32       $N00017                    0000000180061b32     Modele_3D_sfun.exp
 0002:00003b4a       $N00018                    0000000180061b4a     Modele_3D_sfun.exp
 0002:00003b63       $N00019                    0000000180061b63     Modele_3D_sfun.exp
 0002:00003b78       $N00020                    0000000180061b78     Modele_3D_sfun.exp
 0002:00003b8d       $N00021                    0000000180061b8d     Modele_3D_sfun.exp
 0002:00003ba6       $N00022                    0000000180061ba6     Modele_3D_sfun.exp
 0002:00003bb6       $N00023                    0000000180061bb6     Modele_3D_sfun.exp
 0002:00003bc2       $N00024                    0000000180061bc2     Modele_3D_sfun.exp
 0002:00004724       .idata$6                   0000000180062724     sf_runtime:sf_runtime.dll
 0002:000048ce       .idata$6                   00000001800628ce     libmx:libmx.dll
 0002:00004962       .idata$6                   0000000180062962     libmex:libmex.dll
 0002:00004984       .idata$6                   0000000180062984     libut:libut.dll
 0002:00004a3c       .idata$6                   0000000180062a3c     libmwmathutil:libmwmathutil.dll
 0002:00004c2c       .idata$6                   0000000180062c2c     libemlrt:libemlrt.dll
 0002:00004d0c       .idata$6                   0000000180062d0c     libcovrt:libcovrt.dll
 0002:00005146       .idata$6                   0000000180063146     msvcprt:MSVCP140.dll
 0002:000052e0       .idata$6                   00000001800632e0     kernel32:KERNEL32.dll
 0002:000053d6       .idata$6                   00000001800633d6     vcruntime:VCRUNTIME140.dll
 0002:000053e8       .idata$6                   00000001800633e8     vcruntime:VCRUNTIME140_1.dll
 0002:000055ca       .idata$6                   00000001800635ca     ucrt:api-ms-win-crt-string-l1-1-0.dll
 0002:000055ec       .idata$6                   00000001800635ec     ucrt:api-ms-win-crt-stdio-l1-1-0.dll
 0002:0000560c       .idata$6                   000000018006360c     ucrt:api-ms-win-crt-heap-l1-1-0.dll
 0002:0000562c       .idata$6                   000000018006362c     ucrt:api-ms-win-crt-math-l1-1-0.dll
 0002:0000564c       .idata$6                   000000018006364c     ucrt:api-ms-win-crt-utility-l1-1-0.dll
 0002:0000566e       .idata$6                   000000018006366e     ucrt:api-ms-win-crt-runtime-l1-1-0.dll
 0003:00000000       $SG26052                   0000000180064000     Modele_3D_sfun.obj
 0003:00000018       $SG26057                   0000000180064018     Modele_3D_sfun.obj
 0003:00000020       $SG26060                   0000000180064020     Modele_3D_sfun.obj
 0003:00000028       $SG26065                   0000000180064028     Modele_3D_sfun.obj
 0003:00000030       $SG26095                   0000000180064030     Modele_3D_sfun.obj
 0003:00000050       $SG26098                   0000000180064050     Modele_3D_sfun.obj
 0003:00000068       $SG26127                   0000000180064068     Modele_3D_sfun.obj
 0003:00000088       $SG26130                   0000000180064088     Modele_3D_sfun.obj
 0003:000000a0       $SG26159                   00000001800640a0     Modele_3D_sfun.obj
 0003:000000b8       $SG26162                   00000001800640b8     Modele_3D_sfun.obj
 0003:000000d0       $SG26192                   00000001800640d0     Modele_3D_sfun.obj
 0003:000000e8       $SG26195                   00000001800640e8     Modele_3D_sfun.obj
 0003:00000100       $SG26224                   0000000180064100     Modele_3D_sfun.obj
 0003:00000120       $SG26227                   0000000180064120     Modele_3D_sfun.obj
 0003:00000138       $SG26249                   0000000180064138     Modele_3D_sfun.obj
 0003:00000148       $SG26250                   0000000180064148     Modele_3D_sfun.obj
 0003:00000160       $SG25983                   0000000180064160     c2_Modele_3D.obj
 0003:00000180       $SG25984                   0000000180064180     c2_Modele_3D.obj
 0003:000001e0       $SG25986                   00000001800641e0     c2_Modele_3D.obj
 0003:000001e8       $SG25995                   00000001800641e8     c2_Modele_3D.obj
 0003:00000200       $SG25987                   0000000180064200     c2_Modele_3D.obj
 0003:00000260       $SG25989                   0000000180064260     c2_Modele_3D.obj
 0003:00000270       $SG25990                   0000000180064270     c2_Modele_3D.obj
 0003:000002c8       $SG25992                   00000001800642c8     c2_Modele_3D.obj
 0003:000002d8       $SG25998                   00000001800642d8     c2_Modele_3D.obj
 0003:000002f0       $SG25993                   00000001800642f0     c2_Modele_3D.obj
 0003:00000348       $SG26001                   0000000180064348     c2_Modele_3D.obj
 0003:00000360       $SG25996                   0000000180064360     c2_Modele_3D.obj
 0003:000003b4       $SG26013                   00000001800643b4     c2_Modele_3D.obj
 0003:000003c0       $SG25999                   00000001800643c0     c2_Modele_3D.obj
 0003:00000414       $SG26016                   0000000180064414     c2_Modele_3D.obj
 0003:00000420       $SG26002                   0000000180064420     c2_Modele_3D.obj
 0003:00000474       $SG26058                   0000000180064474     c2_Modele_3D.obj
 0003:00000478       $SG26004                   0000000180064478     c2_Modele_3D.obj
 0003:00000490       $SG26005                   0000000180064490     c2_Modele_3D.obj
 0003:000004e4       $SG26277                   00000001800644e4     c2_Modele_3D.obj
 0003:000004e8       $SG26007                   00000001800644e8     c2_Modele_3D.obj
 0003:000004f8       $SG26010                   00000001800644f8     c2_Modele_3D.obj
 0003:00000518       $SG26019                   0000000180064518     c2_Modele_3D.obj
 0003:00000530       $SG26008                   0000000180064530     c2_Modele_3D.obj
 0003:00000580       $SG26011                   0000000180064580     c2_Modele_3D.obj
 0003:000005e0       $SG26014                   00000001800645e0     c2_Modele_3D.obj
 0003:00000640       $SG26017                   0000000180064640     c2_Modele_3D.obj
 0003:000006a0       $SG26020                   00000001800646a0     c2_Modele_3D.obj
 0003:000006fc       $SG26295                   00000001800646fc     c2_Modele_3D.obj
 0003:00000700       $SG26022                   0000000180064700     c2_Modele_3D.obj
 0003:00000710       $SG26023                   0000000180064710     c2_Modele_3D.obj
 0003:0000075c       $SG26583                   000000018006475c     c2_Modele_3D.obj
 0003:00000760       $SG26025                   0000000180064760     c2_Modele_3D.obj
 0003:00000770       $SG26026                   0000000180064770     c2_Modele_3D.obj
 0003:000007bc       $SG26586                   00000001800647bc     c2_Modele_3D.obj
 0003:000007c0       $SG26028                   00000001800647c0     c2_Modele_3D.obj
 0003:000007d8       $SG26031                   00000001800647d8     c2_Modele_3D.obj
 0003:000007e0       $SG26029                   00000001800647e0     c2_Modele_3D.obj
 0003:00000838       $SG26034                   0000000180064838     c2_Modele_3D.obj
 0003:00000850       $SG26032                   0000000180064850     c2_Modele_3D.obj
 0003:00000898       $SG26037                   0000000180064898     c2_Modele_3D.obj
 0003:000008b0       $SG26035                   00000001800648b0     c2_Modele_3D.obj
 0003:00000908       $SG26040                   0000000180064908     c2_Modele_3D.obj
 0003:00000918       $SG26046                   0000000180064918     c2_Modele_3D.obj
 0003:00000928       $SG26055                   0000000180064928     c2_Modele_3D.obj
 0003:00000938       $SG26064                   0000000180064938     c2_Modele_3D.obj
 0003:00000940       $SG26038                   0000000180064940     c2_Modele_3D.obj
 0003:00000998       $SG26043                   0000000180064998     c2_Modele_3D.obj
 0003:000009a8       $SG26049                   00000001800649a8     c2_Modele_3D.obj
 0003:000009b8       $SG26067                   00000001800649b8     c2_Modele_3D.obj
 0003:000009d0       $SG26041                   00000001800649d0     c2_Modele_3D.obj
 0003:00000a30       $SG26044                   0000000180064a30     c2_Modele_3D.obj
 0003:00000a90       $SG26047                   0000000180064a90     c2_Modele_3D.obj
 0003:00000af0       $SG26050                   0000000180064af0     c2_Modele_3D.obj
 0003:00000b4c       $SG26352                   0000000180064b4c     c2_Modele_3D.obj
 0003:00000b54       $SG26652                   0000000180064b54     c2_Modele_3D.obj
 0003:00000b58       $SG26052                   0000000180064b58     c2_Modele_3D.obj
 0003:00000b68       $SG26070                   0000000180064b68     c2_Modele_3D.obj
 0003:00000b80       $SG26053                   0000000180064b80     c2_Modele_3D.obj
 0003:00000be8       $SG26073                   0000000180064be8     c2_Modele_3D.obj
 0003:00000bf0       $SG26056                   0000000180064bf0     c2_Modele_3D.obj
 0003:00000c48       $SG26061                   0000000180064c48     c2_Modele_3D.obj
 0003:00000c58       $SG26079                   0000000180064c58     c2_Modele_3D.obj
 0003:00000c70       $SG26059                   0000000180064c70     c2_Modele_3D.obj
 0003:00000cb8       $SG26080                   0000000180064cb8     c2_Modele_3D.obj
 0003:00000cc8       $SG26082                   0000000180064cc8     c2_Modele_3D.obj
 0003:00000ce0       $SG26062                   0000000180064ce0     c2_Modele_3D.obj
 0003:00000d40       $SG26065                   0000000180064d40     c2_Modele_3D.obj
 0003:00000d88       $SG26076                   0000000180064d88     c2_Modele_3D.obj
 0003:00000d98       $SG26083                   0000000180064d98     c2_Modele_3D.obj
 0003:00000da8       $SG26085                   0000000180064da8     c2_Modele_3D.obj
 0003:00000dc0       $SG26068                   0000000180064dc0     c2_Modele_3D.obj
 0003:00000e10       $SG26071                   0000000180064e10     c2_Modele_3D.obj
 0003:00000e60       $SG26074                   0000000180064e60     c2_Modele_3D.obj
 0003:00000ea8       $SG26086                   0000000180064ea8     c2_Modele_3D.obj
 0003:00000eb8       $SG26088                   0000000180064eb8     c2_Modele_3D.obj
 0003:00000ed0       $SG26077                   0000000180064ed0     c2_Modele_3D.obj
 0003:00000f20       $SG26089                   0000000180064f20     c2_Modele_3D.obj
 0003:00000f30       $SG26091                   0000000180064f30     c2_Modele_3D.obj
 0003:00000f44       $SG26913                   0000000180064f44     c2_Modele_3D.obj
 0003:00000f48       $SG26092                   0000000180064f48     c2_Modele_3D.obj
 0003:00000f58       $SG26094                   0000000180064f58     c2_Modele_3D.obj
 0003:00000f6c       $SG26916                   0000000180064f6c     c2_Modele_3D.obj
 0003:00000f70       $SG26095                   0000000180064f70     c2_Modele_3D.obj
 0003:00000f80       $SG26097                   0000000180064f80     c2_Modele_3D.obj
 0003:00000f94       $SG26955                   0000000180064f94     c2_Modele_3D.obj
 0003:00000f98       $SG26098                   0000000180064f98     c2_Modele_3D.obj
 0003:00000fa8       $SG26100                   0000000180064fa8     c2_Modele_3D.obj
 0003:00000fbc       $SG26958                   0000000180064fbc     c2_Modele_3D.obj
 0003:00000fc0       $SG26101                   0000000180064fc0     c2_Modele_3D.obj
 0003:00000fd0       $SG26103                   0000000180064fd0     c2_Modele_3D.obj
 0003:00000fe4       $SG26961                   0000000180064fe4     c2_Modele_3D.obj
 0003:00000fe8       $SG26104                   0000000180064fe8     c2_Modele_3D.obj
 0003:00000ff8       $SG26106                   0000000180064ff8     c2_Modele_3D.obj
 0003:00001010       $SG26107                   0000000180065010     c2_Modele_3D.obj
 0003:00001020       $SG26109                   0000000180065020     c2_Modele_3D.obj
 0003:00001038       $SG26110                   0000000180065038     c2_Modele_3D.obj
 0003:00001048       $SG26112                   0000000180065048     c2_Modele_3D.obj
 0003:00001060       $SG26113                   0000000180065060     c2_Modele_3D.obj
 0003:00001070       $SG26115                   0000000180065070     c2_Modele_3D.obj
 0003:00001088       $SG26116                   0000000180065088     c2_Modele_3D.obj
 0003:00001098       $SG26118                   0000000180065098     c2_Modele_3D.obj
 0003:000010b0       $SG26119                   00000001800650b0     c2_Modele_3D.obj
 0003:000010c0       $SG26121                   00000001800650c0     c2_Modele_3D.obj
 0003:000010d8       $SG26122                   00000001800650d8     c2_Modele_3D.obj
 0003:000010e8       $SG26124                   00000001800650e8     c2_Modele_3D.obj
 0003:00001100       $SG26125                   0000000180065100     c2_Modele_3D.obj
 0003:00001110       $SG26127                   0000000180065110     c2_Modele_3D.obj
 0003:00001128       $SG26128                   0000000180065128     c2_Modele_3D.obj
 0003:00001138       $SG26130                   0000000180065138     c2_Modele_3D.obj
 0003:00001148       $SG26154                   0000000180065148     c2_Modele_3D.obj
 0003:00001158       $SG26193                   0000000180065158     c2_Modele_3D.obj
 0003:00001170       $SG26131                   0000000180065170     c2_Modele_3D.obj
 0003:000011b8       $SG26133                   00000001800651b8     c2_Modele_3D.obj
 0003:000011c8       $SG26157                   00000001800651c8     c2_Modele_3D.obj
 0003:000011d8       $SG26196                   00000001800651d8     c2_Modele_3D.obj
 0003:000011f0       $SG26134                   00000001800651f0     c2_Modele_3D.obj
 0003:00001238       $SG26136                   0000000180065238     c2_Modele_3D.obj
 0003:00001248       $SG26160                   0000000180065248     c2_Modele_3D.obj
 0003:00001258       $SG26199                   0000000180065258     c2_Modele_3D.obj
 0003:00001260       $SG26137                   0000000180065260     c2_Modele_3D.obj
 0003:000012a8       $SG26139                   00000001800652a8     c2_Modele_3D.obj
 0003:000012b8       $SG26163                   00000001800652b8     c2_Modele_3D.obj
 0003:000012c8       $SG26202                   00000001800652c8     c2_Modele_3D.obj
 0003:000012d0       $SG26140                   00000001800652d0     c2_Modele_3D.obj
 0003:00001318       $SG26142                   0000000180065318     c2_Modele_3D.obj
 0003:00001328       $SG26166                   0000000180065328     c2_Modele_3D.obj
 0003:00001338       $SG26211                   0000000180065338     c2_Modele_3D.obj
 0003:00001350       $SG26143                   0000000180065350     c2_Modele_3D.obj
 0003:00001398       $SG26145                   0000000180065398     c2_Modele_3D.obj
 0003:000013a8       $SG26169                   00000001800653a8     c2_Modele_3D.obj
 0003:000013b8       $SG26232                   00000001800653b8     c2_Modele_3D.obj
 0003:000013d0       $SG26146                   00000001800653d0     c2_Modele_3D.obj
 0003:00001438       $SG26148                   0000000180065438     c2_Modele_3D.obj
 0003:00001448       $SG26172                   0000000180065448     c2_Modele_3D.obj
 0003:00001458       $SG26271                   0000000180065458     c2_Modele_3D.obj
 0003:00001470       $SG26149                   0000000180065470     c2_Modele_3D.obj
 0003:000014d8       $SG26151                   00000001800654d8     c2_Modele_3D.obj
 0003:000014e8       $SG26175                   00000001800654e8     c2_Modele_3D.obj
 0003:000014f8       $SG26274                   00000001800654f8     c2_Modele_3D.obj
 0003:00001510       $SG26152                   0000000180065510     c2_Modele_3D.obj
 0003:00001578       $SG26178                   0000000180065578     c2_Modele_3D.obj
 0003:00001588       $SG26280                   0000000180065588     c2_Modele_3D.obj
 0003:00001590       $SG26155                   0000000180065590     c2_Modele_3D.obj
 0003:000015f8       $SG26283                   00000001800655f8     c2_Modele_3D.obj
 0003:00001600       $SG26158                   0000000180065600     c2_Modele_3D.obj
 0003:00001650       $SG26161                   0000000180065650     c2_Modele_3D.obj
 0003:000016a0       $SG26164                   00000001800656a0     c2_Modele_3D.obj
 0003:000016f0       $SG26167                   00000001800656f0     c2_Modele_3D.obj
 0003:00001740       $SG26170                   0000000180065740     c2_Modele_3D.obj
 0003:00001790       $SG26173                   0000000180065790     c2_Modele_3D.obj
 0003:000017e0       $SG26176                   00000001800657e0     c2_Modele_3D.obj
 0003:00001830       $SG26179                   0000000180065830     c2_Modele_3D.obj
 0003:000018a0       $SG26181                   00000001800658a0     c2_Modele_3D.obj
 0003:000018b0       $SG26182                   00000001800658b0     c2_Modele_3D.obj
 0003:00001918       $SG26184                   0000000180065918     c2_Modele_3D.obj
 0003:00001928       $SG26187                   0000000180065928     c2_Modele_3D.obj
 0003:00001938       $SG26247                   0000000180065938     c2_Modele_3D.obj
 0003:00001948       $SG26355                   0000000180065948     c2_Modele_3D.obj
 0003:00001950       $SG26185                   0000000180065950     c2_Modele_3D.obj
 0003:000019b8       $SG26190                   00000001800659b8     c2_Modele_3D.obj
 0003:000019c8       $SG26250                   00000001800659c8     c2_Modele_3D.obj
 0003:000019d8       $SG26358                   00000001800659d8     c2_Modele_3D.obj
 0003:000019e0       $SG26188                   00000001800659e0     c2_Modele_3D.obj
 0003:00001a48       $SG26253                   0000000180065a48     c2_Modele_3D.obj
 0003:00001a58       $SG26361                   0000000180065a58     c2_Modele_3D.obj
 0003:00001a60       $SG26191                   0000000180065a60     c2_Modele_3D.obj
 0003:00001ac8       $SG26256                   0000000180065ac8     c2_Modele_3D.obj
 0003:00001ad8       $SG26364                   0000000180065ad8     c2_Modele_3D.obj
 0003:00001ae0       $SG26194                   0000000180065ae0     c2_Modele_3D.obj
 0003:00001b50       $SG26197                   0000000180065b50     c2_Modele_3D.obj
 0003:00001bc0       $SG26200                   0000000180065bc0     c2_Modele_3D.obj
 0003:00001c08       $SG26259                   0000000180065c08     c2_Modele_3D.obj
 0003:00001c18       $SG26367                   0000000180065c18     c2_Modele_3D.obj
 0003:00001c20       $SG26203                   0000000180065c20     c2_Modele_3D.obj
 0003:00001c68       $SG26205                   0000000180065c68     c2_Modele_3D.obj
 0003:00001c78       $SG26208                   0000000180065c78     c2_Modele_3D.obj
 0003:00001c94       $SG26505                   0000000180065c94     c2_Modele_3D.obj
 0003:00001ca0       $SG26206                   0000000180065ca0     c2_Modele_3D.obj
 0003:00001cf8       $SG26214                   0000000180065cf8     c2_Modele_3D.obj
 0003:00001d08       $SG26262                   0000000180065d08     c2_Modele_3D.obj
 0003:00001d18       $SG26370                   0000000180065d18     c2_Modele_3D.obj
 0003:00001d30       $SG26209                   0000000180065d30     c2_Modele_3D.obj
 0003:00001d94       $SG26625                   0000000180065d94     c2_Modele_3D.obj
 0003:00001da0       $SG26212                   0000000180065da0     c2_Modele_3D.obj
 0003:00001e00       $SG26215                   0000000180065e00     c2_Modele_3D.obj
 0003:00001e68       $SG26217                   0000000180065e68     c2_Modele_3D.obj
 0003:00001e78       $SG26265                   0000000180065e78     c2_Modele_3D.obj
 0003:00001e88       $SG26484                   0000000180065e88     c2_Modele_3D.obj
 0003:00001ea0       $SG26218                   0000000180065ea0     c2_Modele_3D.obj
 0003:00001f08       $SG26220                   0000000180065f08     c2_Modele_3D.obj
 0003:00001f18       $SG26268                   0000000180065f18     c2_Modele_3D.obj
 0003:00001f28       $SG26487                   0000000180065f28     c2_Modele_3D.obj
 0003:00001f40       $SG26221                   0000000180065f40     c2_Modele_3D.obj
 0003:00001fa8       $SG26223                   0000000180065fa8     c2_Modele_3D.obj
 0003:00001fb8       $SG26286                   0000000180065fb8     c2_Modele_3D.obj
 0003:00001fc8       $SG26556                   0000000180065fc8     c2_Modele_3D.obj
 0003:00001fd8       $SG26595                   0000000180065fd8     c2_Modele_3D.obj
 0003:00001ff0       $SG26224                   0000000180065ff0     c2_Modele_3D.obj
 0003:00002058       $SG26226                   0000000180066058     c2_Modele_3D.obj
 0003:00002068       $SG26289                   0000000180066068     c2_Modele_3D.obj
 0003:00002078       $SG26607                   0000000180066078     c2_Modele_3D.obj
 0003:00002090       $SG26227                   0000000180066090     c2_Modele_3D.obj
 0003:000020f8       $SG26229                   00000001800660f8     c2_Modele_3D.obj
 0003:00002108       $SG26292                   0000000180066108     c2_Modele_3D.obj
 0003:00002118       $SG26640                   0000000180066118     c2_Modele_3D.obj
 0003:00002120       $SG26230                   0000000180066120     c2_Modele_3D.obj
 0003:00002188       $SG26310                   0000000180066188     c2_Modele_3D.obj
 0003:00002198       $SG26643                   0000000180066198     c2_Modele_3D.obj
 0003:000021a0       $SG26233                   00000001800661a0     c2_Modele_3D.obj
 0003:00002210       $SG26235                   0000000180066210     c2_Modele_3D.obj
 0003:00002220       $SG26236                   0000000180066220     c2_Modele_3D.obj
 0003:00002288       $SG26238                   0000000180066288     c2_Modele_3D.obj
 0003:00002298       $SG26313                   0000000180066298     c2_Modele_3D.obj
 0003:000022a8       $SG26655                   00000001800662a8     c2_Modele_3D.obj
 0003:000022c0       $SG26239                   00000001800662c0     c2_Modele_3D.obj
 0003:00002328       $SG26241                   0000000180066328     c2_Modele_3D.obj
 0003:00002338       $SG26316                   0000000180066338     c2_Modele_3D.obj
 0003:00002348       $SG26661                   0000000180066348     c2_Modele_3D.obj
 0003:00002360       $SG26242                   0000000180066360     c2_Modele_3D.obj
 0003:000023c8       $SG26244                   00000001800663c8     c2_Modele_3D.obj
 0003:000023d8       $SG26319                   00000001800663d8     c2_Modele_3D.obj
 0003:000023e8       $SG26664                   00000001800663e8     c2_Modele_3D.obj
 0003:00002400       $SG26245                   0000000180066400     c2_Modele_3D.obj
 0003:00002468       $SG26322                   0000000180066468     c2_Modele_3D.obj
 0003:00002478       $SG26667                   0000000180066478     c2_Modele_3D.obj
 0003:00002490       $SG26248                   0000000180066490     c2_Modele_3D.obj
 0003:000024e0       $SG26251                   00000001800664e0     c2_Modele_3D.obj
 0003:00002530       $SG26254                   0000000180066530     c2_Modele_3D.obj
 0003:00002580       $SG26257                   0000000180066580     c2_Modele_3D.obj
 0003:000025d0       $SG26260                   00000001800665d0     c2_Modele_3D.obj
 0003:00002620       $SG26263                   0000000180066620     c2_Modele_3D.obj
 0003:00002670       $SG26266                   0000000180066670     c2_Modele_3D.obj
 0003:000026c0       $SG26269                   00000001800666c0     c2_Modele_3D.obj
 0003:00002710       $SG26272                   0000000180066710     c2_Modele_3D.obj
 0003:00002760       $SG26275                   0000000180066760     c2_Modele_3D.obj
 0003:000027b4       $SG26673                   00000001800667b4     c2_Modele_3D.obj
 0003:000027c0       $SG26278                   00000001800667c0     c2_Modele_3D.obj
 0003:00002800       $SG26281                   0000000180066800     c2_Modele_3D.obj
 0003:00002860       $SG26284                   0000000180066860     c2_Modele_3D.obj
 0003:000028c0       $SG26287                   00000001800668c0     c2_Modele_3D.obj
 0003:00002910       $SG26290                   0000000180066910     c2_Modele_3D.obj
 0003:00002960       $SG26293                   0000000180066960     c2_Modele_3D.obj
 0003:000029b0       $SG26296                   00000001800669b0     c2_Modele_3D.obj
 0003:000029f0       $SG26298                   00000001800669f0     c2_Modele_3D.obj
 0003:00002a00       $SG26299                   0000000180066a00     c2_Modele_3D.obj
 0003:00002a48       $SG26301                   0000000180066a48     c2_Modele_3D.obj
 0003:00002a58       $SG26325                   0000000180066a58     c2_Modele_3D.obj
 0003:00002a68       $SG26715                   0000000180066a68     c2_Modele_3D.obj
 0003:00002a70       $SG26302                   0000000180066a70     c2_Modele_3D.obj
 0003:00002ad8       $SG26304                   0000000180066ad8     c2_Modele_3D.obj
 0003:00002ae8       $SG26328                   0000000180066ae8     c2_Modele_3D.obj
 0003:00002af8       $SG26757                   0000000180066af8     c2_Modele_3D.obj
 0003:00002b00       $SG26305                   0000000180066b00     c2_Modele_3D.obj
 0003:00002b68       $SG26307                   0000000180066b68     c2_Modele_3D.obj
 0003:00002b78       $SG26331                   0000000180066b78     c2_Modele_3D.obj
 0003:00002b88       $SG26760                   0000000180066b88     c2_Modele_3D.obj
 0003:00002b90       $SG26308                   0000000180066b90     c2_Modele_3D.obj
 0003:00002bf8       $SG26334                   0000000180066bf8     c2_Modele_3D.obj
 0003:00002c08       $SG26826                   0000000180066c08     c2_Modele_3D.obj
 0003:00002c18       $SG26865                   0000000180066c18     c2_Modele_3D.obj
 0003:00002c20       $SG26311                   0000000180066c20     c2_Modele_3D.obj
 0003:00002c70       $SG26314                   0000000180066c70     c2_Modele_3D.obj
 0003:00002cc0       $SG26317                   0000000180066cc0     c2_Modele_3D.obj
 0003:00002d10       $SG26320                   0000000180066d10     c2_Modele_3D.obj
 0003:00002d60       $SG26323                   0000000180066d60     c2_Modele_3D.obj
 0003:00002db0       $SG26326                   0000000180066db0     c2_Modele_3D.obj
 0003:00002e00       $SG26329                   0000000180066e00     c2_Modele_3D.obj
 0003:00002e50       $SG26332                   0000000180066e50     c2_Modele_3D.obj
 0003:00002ea0       $SG26335                   0000000180066ea0     c2_Modele_3D.obj
 0003:00002ef0       $SG26337                   0000000180066ef0     c2_Modele_3D.obj
 0003:00002f00       $SG26338                   0000000180066f00     c2_Modele_3D.obj
 0003:00002f50       $SG26340                   0000000180066f50     c2_Modele_3D.obj
 0003:00002f60       $SG26341                   0000000180066f60     c2_Modele_3D.obj
 0003:00002fb0       $SG26343                   0000000180066fb0     c2_Modele_3D.obj
 0003:00002fc0       $SG26344                   0000000180066fc0     c2_Modele_3D.obj
 0003:00003010       $SG26346                   0000000180067010     c2_Modele_3D.obj
 0003:00003020       $SG26347                   0000000180067020     c2_Modele_3D.obj
 0003:00003070       $SG26349                   0000000180067070     c2_Modele_3D.obj
 0003:00003080       $SG26350                   0000000180067080     c2_Modele_3D.obj
 0003:000030d0       $SG26353                   00000001800670d0     c2_Modele_3D.obj
 0003:00003120       $SG26356                   0000000180067120     c2_Modele_3D.obj
 0003:00003170       $SG26359                   0000000180067170     c2_Modele_3D.obj
 0003:000031c0       $SG26362                   00000001800671c0     c2_Modele_3D.obj
 0003:00003210       $SG26365                   0000000180067210     c2_Modele_3D.obj
 0003:00003260       $SG26368                   0000000180067260     c2_Modele_3D.obj
 0003:000032a8       $SG26373                   00000001800672a8     c2_Modele_3D.obj
 0003:000032b8       $SG26853                   00000001800672b8     c2_Modele_3D.obj
 0003:000032c8       $SG26868                   00000001800672c8     c2_Modele_3D.obj
 0003:000032d0       $SG26371                   00000001800672d0     c2_Modele_3D.obj
 0003:00003324       $SG26904                   0000000180067324     c2_Modele_3D.obj
 0003:00003330       $SG26374                   0000000180067330     c2_Modele_3D.obj
 0003:00003380       $SG26376                   0000000180067380     c2_Modele_3D.obj
 0003:00003390       $SG26377                   0000000180067390     c2_Modele_3D.obj
 0003:000033e0       $SG26379                   00000001800673e0     c2_Modele_3D.obj
 0003:000033f0       $SG26380                   00000001800673f0     c2_Modele_3D.obj
 0003:00003440       $SG26382                   0000000180067440     c2_Modele_3D.obj
 0003:00003450       $SG26383                   0000000180067450     c2_Modele_3D.obj
 0003:000034a0       $SG26385                   00000001800674a0     c2_Modele_3D.obj
 0003:000034b0       $SG26386                   00000001800674b0     c2_Modele_3D.obj
 0003:00003500       $SG26388                   0000000180067500     c2_Modele_3D.obj
 0003:00003510       $SG26389                   0000000180067510     c2_Modele_3D.obj
 0003:00003560       $SG26391                   0000000180067560     c2_Modele_3D.obj
 0003:00003570       $SG26392                   0000000180067570     c2_Modele_3D.obj
 0003:000035c0       $SG26394                   00000001800675c0     c2_Modele_3D.obj
 0003:000035d0       $SG26395                   00000001800675d0     c2_Modele_3D.obj
 0003:00003620       $SG26397                   0000000180067620     c2_Modele_3D.obj
 0003:00003630       $SG26398                   0000000180067630     c2_Modele_3D.obj
 0003:00003680       $SG26400                   0000000180067680     c2_Modele_3D.obj
 0003:00003690       $SG26401                   0000000180067690     c2_Modele_3D.obj
 0003:000036f8       $SG26403                   00000001800676f8     c2_Modele_3D.obj
 0003:00003708       $SG26508                   0000000180067708     c2_Modele_3D.obj
 0003:00003718       $SG26931                   0000000180067718     c2_Modele_3D.obj
 0003:00003730       $SG26404                   0000000180067730     c2_Modele_3D.obj
 0003:00003798       $SG26406                   0000000180067798     c2_Modele_3D.obj
 0003:000037a8       $SG26559                   00000001800677a8     c2_Modele_3D.obj
 0003:000037b8       $SG26934                   00000001800677b8     c2_Modele_3D.obj
 0003:000037d0       $SG26407                   00000001800677d0     c2_Modele_3D.obj
 0003:00003838       $SG26409                   0000000180067838     c2_Modele_3D.obj
 0003:00003848       $SG26562                   0000000180067848     c2_Modele_3D.obj
 0003:00003858       $SG26967                   0000000180067858     c2_Modele_3D.obj
 0003:00003860       $SG26410                   0000000180067860     c2_Modele_3D.obj
 0003:000038c8       $SG26412                   00000001800678c8     c2_Modele_3D.obj
 0003:000038d8       $SG26565                   00000001800678d8     c2_Modele_3D.obj
 0003:000038e8       $SG26970                   00000001800678e8     c2_Modele_3D.obj
 0003:000038f8       $SG26979                   00000001800678f8     c2_Modele_3D.obj
 0003:00003910       $SG26413                   0000000180067910     c2_Modele_3D.obj
 0003:00003978       $SG26415                   0000000180067978     c2_Modele_3D.obj
 0003:00003988       $SG26568                   0000000180067988     c2_Modele_3D.obj
 0003:00003998       $SG26973                   0000000180067998     c2_Modele_3D.obj
 0003:000039a8       $SG26982                   00000001800679a8     c2_Modele_3D.obj
 0003:000039c0       $SG26416                   00000001800679c0     c2_Modele_3D.obj
 0003:00003a28       $SG26418                   0000000180067a28     c2_Modele_3D.obj
 0003:00003a38       $SG26571                   0000000180067a38     c2_Modele_3D.obj
 0003:00003a48       $SG27000                   0000000180067a48     c2_Modele_3D.obj
 0003:00003a50       $SG26419                   0000000180067a50     c2_Modele_3D.obj
 0003:00003ab8       $SG26421                   0000000180067ab8     c2_Modele_3D.obj
 0003:00003ac8       $SG26574                   0000000180067ac8     c2_Modele_3D.obj
 0003:00003ad8       $SG27001                   0000000180067ad8     c2_Modele_3D.obj
 0003:00003af0       $SG26422                   0000000180067af0     c2_Modele_3D.obj
 0003:00003b58       $SG26424                   0000000180067b58     c2_Modele_3D.obj
 0003:00003b68       $SG26577                   0000000180067b68     c2_Modele_3D.obj
 0003:00003b78       $SG27004                   0000000180067b78     c2_Modele_3D.obj
 0003:00003b80       $SG26425                   0000000180067b80     c2_Modele_3D.obj
 0003:00003be8       $SG26427                   0000000180067be8     c2_Modele_3D.obj
 0003:00003bf8       $SG26580                   0000000180067bf8     c2_Modele_3D.obj
 0003:00003c08       $SG27005                   0000000180067c08     c2_Modele_3D.obj
 0003:00003c20       $SG26428                   0000000180067c20     c2_Modele_3D.obj
 0003:00003c88       $SG26430                   0000000180067c88     c2_Modele_3D.obj
 0003:00003c98       $SG26665                   0000000180067c98     c2_Modele_3D.obj
 0003:00003ca8       $SG27034                   0000000180067ca8     c2_Modele_3D.obj
 0003:00003cb8       $SG27065                   0000000180067cb8     c2_Modele_3D.obj
 0003:00003cd0       $SG26431                   0000000180067cd0     c2_Modele_3D.obj
 0003:00003d38       $SG26433                   0000000180067d38     c2_Modele_3D.obj
 0003:00003d48       $SG26668                   0000000180067d48     c2_Modele_3D.obj
 0003:00003d58       $SG27038                   0000000180067d58     c2_Modele_3D.obj
 0003:00003d68       $SG27068                   0000000180067d68     c2_Modele_3D.obj
 0003:00003d80       $SG26434                   0000000180067d80     c2_Modele_3D.obj
 0003:00003de8       $SG26436                   0000000180067de8     c2_Modele_3D.obj
 0003:00003df8       $SG26439                   0000000180067df8     c2_Modele_3D.obj
 0003:00003e08       $SG26670                   0000000180067e08     c2_Modele_3D.obj
 0003:00003e18       $SG27217                   0000000180067e18     c2_Modele_3D.obj
 0003:00003e20       $SG26437                   0000000180067e20     c2_Modele_3D.obj
 0003:00003e88       $SG26442                   0000000180067e88     c2_Modele_3D.obj
 0003:00003e98       $SG26676                   0000000180067e98     c2_Modele_3D.obj
 0003:00003ea8       $SG27350                   0000000180067ea8     c2_Modele_3D.obj
 0003:00003ec0       $SG26440                   0000000180067ec0     c2_Modele_3D.obj
 0003:00003f30       $SG26443                   0000000180067f30     c2_Modele_3D.obj
 0003:00003f98       $SG26445                   0000000180067f98     c2_Modele_3D.obj
 0003:00003fb0       $SG26446                   0000000180067fb0     c2_Modele_3D.obj
 0003:00004018       $SG26448                   0000000180068018     c2_Modele_3D.obj
 0003:00004030       $SG26449                   0000000180068030     c2_Modele_3D.obj
 0003:00004098       $SG26451                   0000000180068098     c2_Modele_3D.obj
 0003:000040b0       $SG26452                   00000001800680b0     c2_Modele_3D.obj
 0003:00004118       $SG26454                   0000000180068118     c2_Modele_3D.obj
 0003:00004130       $SG26455                   0000000180068130     c2_Modele_3D.obj
 0003:00004198       $SG26457                   0000000180068198     c2_Modele_3D.obj
 0003:000041b0       $SG26458                   00000001800681b0     c2_Modele_3D.obj
 0003:00004218       $SG26460                   0000000180068218     c2_Modele_3D.obj
 0003:00004230       $SG26461                   0000000180068230     c2_Modele_3D.obj
 0003:00004298       $SG26463                   0000000180068298     c2_Modele_3D.obj
 0003:000042b0       $SG26464                   00000001800682b0     c2_Modele_3D.obj
 0003:00004318       $SG26466                   0000000180068318     c2_Modele_3D.obj
 0003:00004330       $SG26467                   0000000180068330     c2_Modele_3D.obj
 0003:00004398       $SG26469                   0000000180068398     c2_Modele_3D.obj
 0003:000043b0       $SG26470                   00000001800683b0     c2_Modele_3D.obj
 0003:00004418       $SG26472                   0000000180068418     c2_Modele_3D.obj
 0003:00004430       $SG26473                   0000000180068430     c2_Modele_3D.obj
 0003:00004498       $SG26475                   0000000180068498     c2_Modele_3D.obj
 0003:000044b0       $SG26476                   00000001800684b0     c2_Modele_3D.obj
 0003:00004518       $SG26478                   0000000180068518     c2_Modele_3D.obj
 0003:00004530       $SG26479                   0000000180068530     c2_Modele_3D.obj
 0003:00004598       $SG26481                   0000000180068598     c2_Modele_3D.obj
 0003:000045b0       $SG26482                   00000001800685b0     c2_Modele_3D.obj
 0003:00004620       $SG26485                   0000000180068620     c2_Modele_3D.obj
 0003:00004690       $SG26488                   0000000180068690     c2_Modele_3D.obj
 0003:00004700       $SG26490                   0000000180068700     c2_Modele_3D.obj
 0003:00004710       $SG26491                   0000000180068710     c2_Modele_3D.obj
 0003:00004760       $SG26493                   0000000180068760     c2_Modele_3D.obj
 0003:00004770       $SG26494                   0000000180068770     c2_Modele_3D.obj
 0003:000047d8       $SG26496                   00000001800687d8     c2_Modele_3D.obj
 0003:000047f0       $SG26497                   00000001800687f0     c2_Modele_3D.obj
 0003:00004858       $SG26499                   0000000180068858     c2_Modele_3D.obj
 0003:00004870       $SG26500                   0000000180068870     c2_Modele_3D.obj
 0003:000048d8       $SG26502                   00000001800688d8     c2_Modele_3D.obj
 0003:000048f0       $SG26503                   00000001800688f0     c2_Modele_3D.obj
 0003:00004960       $SG26506                   0000000180068960     c2_Modele_3D.obj
 0003:000049b0       $SG26509                   00000001800689b0     c2_Modele_3D.obj
 0003:00004a00       $SG26511                   0000000180068a00     c2_Modele_3D.obj
 0003:00004a10       $SG26512                   0000000180068a10     c2_Modele_3D.obj
 0003:00004a60       $SG26514                   0000000180068a60     c2_Modele_3D.obj
 0003:00004a70       $SG26515                   0000000180068a70     c2_Modele_3D.obj
 0003:00004ad8       $SG26517                   0000000180068ad8     c2_Modele_3D.obj
 0003:00004af0       $SG26518                   0000000180068af0     c2_Modele_3D.obj
 0003:00004b58       $SG26520                   0000000180068b58     c2_Modele_3D.obj
 0003:00004b70       $SG26521                   0000000180068b70     c2_Modele_3D.obj
 0003:00004bd8       $SG26523                   0000000180068bd8     c2_Modele_3D.obj
 0003:00004bf0       $SG26524                   0000000180068bf0     c2_Modele_3D.obj
 0003:00004c58       $SG26526                   0000000180068c58     c2_Modele_3D.obj
 0003:00004c70       $SG26527                   0000000180068c70     c2_Modele_3D.obj
 0003:00004cd8       $SG26529                   0000000180068cd8     c2_Modele_3D.obj
 0003:00004cf0       $SG26530                   0000000180068cf0     c2_Modele_3D.obj
 0003:00004d58       $SG26532                   0000000180068d58     c2_Modele_3D.obj
 0003:00004d70       $SG26533                   0000000180068d70     c2_Modele_3D.obj
 0003:00004dd8       $SG26535                   0000000180068dd8     c2_Modele_3D.obj
 0003:00004df0       $SG26536                   0000000180068df0     c2_Modele_3D.obj
 0003:00004e58       $SG26538                   0000000180068e58     c2_Modele_3D.obj
 0003:00004e70       $SG26539                   0000000180068e70     c2_Modele_3D.obj
 0003:00004ed8       $SG26541                   0000000180068ed8     c2_Modele_3D.obj
 0003:00004ef0       $SG26542                   0000000180068ef0     c2_Modele_3D.obj
 0003:00004f58       $SG26544                   0000000180068f58     c2_Modele_3D.obj
 0003:00004f70       $SG26545                   0000000180068f70     c2_Modele_3D.obj
 0003:00004fd8       $SG26547                   0000000180068fd8     c2_Modele_3D.obj
 0003:00004ff0       $SG26548                   0000000180068ff0     c2_Modele_3D.obj
 0003:00005058       $SG26550                   0000000180069058     c2_Modele_3D.obj
 0003:00005070       $SG26551                   0000000180069070     c2_Modele_3D.obj
 0003:000050d8       $SG26553                   00000001800690d8     c2_Modele_3D.obj
 0003:000050f0       $SG26554                   00000001800690f0     c2_Modele_3D.obj
 0003:00005160       $SG26557                   0000000180069160     c2_Modele_3D.obj
 0003:000051c0       $SG26560                   00000001800691c0     c2_Modele_3D.obj
 0003:00005210       $SG26563                   0000000180069210     c2_Modele_3D.obj
 0003:00005260       $SG26566                   0000000180069260     c2_Modele_3D.obj
 0003:000052b0       $SG26569                   00000001800692b0     c2_Modele_3D.obj
 0003:00005300       $SG26572                   0000000180069300     c2_Modele_3D.obj
 0003:00005350       $SG26575                   0000000180069350     c2_Modele_3D.obj
 0003:000053a0       $SG26578                   00000001800693a0     c2_Modele_3D.obj
 0003:000053f0       $SG26581                   00000001800693f0     c2_Modele_3D.obj
 0003:00005440       $SG26584                   0000000180069440     c2_Modele_3D.obj
 0003:00005490       $SG26587                   0000000180069490     c2_Modele_3D.obj
 0003:000054d8       $SG26589                   00000001800694d8     c2_Modele_3D.obj
 0003:000054f0       $SG26590                   00000001800694f0     c2_Modele_3D.obj
 0003:00005540       $SG26592                   0000000180069540     c2_Modele_3D.obj
 0003:00005550       $SG26593                   0000000180069550     c2_Modele_3D.obj
 0003:000055a0       $SG26596                   00000001800695a0     c2_Modele_3D.obj
 0003:00005620       $SG26598                   0000000180069620     c2_Modele_3D.obj
 0003:00005630       $SG26599                   0000000180069630     c2_Modele_3D.obj
 0003:00005698       $SG26601                   0000000180069698     c2_Modele_3D.obj
 0003:000056b0       $SG26602                   00000001800696b0     c2_Modele_3D.obj
 0003:00005718       $SG26604                   0000000180069718     c2_Modele_3D.obj
 0003:00005730       $SG26605                   0000000180069730     c2_Modele_3D.obj
 0003:000057a0       $SG26608                   00000001800697a0     c2_Modele_3D.obj
 0003:000057f0       $SG26610                   00000001800697f0     c2_Modele_3D.obj
 0003:00005800       $SG26611                   0000000180069800     c2_Modele_3D.obj
 0003:00005868       $SG26613                   0000000180069868     c2_Modele_3D.obj
 0003:00005880       $SG26614                   0000000180069880     c2_Modele_3D.obj
 0003:000058e8       $SG26616                   00000001800698e8     c2_Modele_3D.obj
 0003:00005900       $SG26617                   0000000180069900     c2_Modele_3D.obj
 0003:00005968       $SG26619                   0000000180069968     c2_Modele_3D.obj
 0003:00005980       $SG26620                   0000000180069980     c2_Modele_3D.obj
 0003:000059e8       $SG26622                   00000001800699e8     c2_Modele_3D.obj
 0003:00005a00       $SG26623                   0000000180069a00     c2_Modele_3D.obj
 0003:00005a70       $SG26626                   0000000180069a70     c2_Modele_3D.obj
 0003:00005ab8       $SG26628                   0000000180069ab8     c2_Modele_3D.obj
 0003:00005ad0       $SG26629                   0000000180069ad0     c2_Modele_3D.obj
 0003:00005b20       $SG26631                   0000000180069b20     c2_Modele_3D.obj
 0003:00005b30       $SG26632                   0000000180069b30     c2_Modele_3D.obj
 0003:00005b98       $SG26634                   0000000180069b98     c2_Modele_3D.obj
 0003:00005bb0       $SG26635                   0000000180069bb0     c2_Modele_3D.obj
 0003:00005c18       $SG26637                   0000000180069c18     c2_Modele_3D.obj
 0003:00005c30       $SG26638                   0000000180069c30     c2_Modele_3D.obj
 0003:00005ca0       $SG26641                   0000000180069ca0     c2_Modele_3D.obj
 0003:00005cf0       $SG26644                   0000000180069cf0     c2_Modele_3D.obj
 0003:00005d38       $SG26646                   0000000180069d38     c2_Modele_3D.obj
 0003:00005d60       $SG26647                   0000000180069d60     c2_Modele_3D.obj
 0003:00005dc0       $SG26649                   0000000180069dc0     c2_Modele_3D.obj
 0003:00005dd0       $SG26650                   0000000180069dd0     c2_Modele_3D.obj
 0003:00005e20       $SG26653                   0000000180069e20     c2_Modele_3D.obj
 0003:00005e70       $SG26656                   0000000180069e70     c2_Modele_3D.obj
 0003:00005ec8       $SG26658                   0000000180069ec8     c2_Modele_3D.obj
 0003:00005ee0       $SG26659                   0000000180069ee0     c2_Modele_3D.obj
 0003:00005f50       $SG26662                   0000000180069f50     c2_Modele_3D.obj
 0003:00005fc0       $SG26671                   0000000180069fc0     c2_Modele_3D.obj
 0003:00006010       $SG26674                   000000018006a010     c2_Modele_3D.obj
 0003:00006060       $SG26677                   000000018006a060     c2_Modele_3D.obj
 0003:000060b0       $SG26679                   000000018006a0b0     c2_Modele_3D.obj
 0003:000060c0       $SG26680                   000000018006a0c0     c2_Modele_3D.obj
 0003:00006110       $SG26682                   000000018006a110     c2_Modele_3D.obj
 0003:00006120       $SG26683                   000000018006a120     c2_Modele_3D.obj
 0003:00006170       $SG26685                   000000018006a170     c2_Modele_3D.obj
 0003:00006180       $SG26686                   000000018006a180     c2_Modele_3D.obj
 0003:000061d0       $SG26688                   000000018006a1d0     c2_Modele_3D.obj
 0003:000061e0       $SG26689                   000000018006a1e0     c2_Modele_3D.obj
 0003:00006230       $SG26691                   000000018006a230     c2_Modele_3D.obj
 0003:00006240       $SG26692                   000000018006a240     c2_Modele_3D.obj
 0003:00006290       $SG26694                   000000018006a290     c2_Modele_3D.obj
 0003:000062a0       $SG26695                   000000018006a2a0     c2_Modele_3D.obj
 0003:000062f0       $SG26697                   000000018006a2f0     c2_Modele_3D.obj
 0003:00006300       $SG26698                   000000018006a300     c2_Modele_3D.obj
 0003:00006350       $SG26700                   000000018006a350     c2_Modele_3D.obj
 0003:00006360       $SG26701                   000000018006a360     c2_Modele_3D.obj
 0003:000063b0       $SG26703                   000000018006a3b0     c2_Modele_3D.obj
 0003:000063c0       $SG26704                   000000018006a3c0     c2_Modele_3D.obj
 0003:00006410       $SG26706                   000000018006a410     c2_Modele_3D.obj
 0003:00006420       $SG26707                   000000018006a420     c2_Modele_3D.obj
 0003:00006470       $SG26709                   000000018006a470     c2_Modele_3D.obj
 0003:00006480       $SG26710                   000000018006a480     c2_Modele_3D.obj
 0003:000064d0       $SG26712                   000000018006a4d0     c2_Modele_3D.obj
 0003:000064e0       $SG26713                   000000018006a4e0     c2_Modele_3D.obj
 0003:00006530       $SG26716                   000000018006a530     c2_Modele_3D.obj
 0003:00006580       $SG26718                   000000018006a580     c2_Modele_3D.obj
 0003:00006590       $SG26719                   000000018006a590     c2_Modele_3D.obj
 0003:000065e0       $SG26721                   000000018006a5e0     c2_Modele_3D.obj
 0003:000065f0       $SG26722                   000000018006a5f0     c2_Modele_3D.obj
 0003:00006640       $SG26724                   000000018006a640     c2_Modele_3D.obj
 0003:00006650       $SG26725                   000000018006a650     c2_Modele_3D.obj
 0003:000066b8       $SG26727                   000000018006a6b8     c2_Modele_3D.obj
 0003:000066d0       $SG26728                   000000018006a6d0     c2_Modele_3D.obj
 0003:00006738       $SG26730                   000000018006a738     c2_Modele_3D.obj
 0003:00006750       $SG26731                   000000018006a750     c2_Modele_3D.obj
 0003:000067a0       $SG26733                   000000018006a7a0     c2_Modele_3D.obj
 0003:000067b0       $SG26734                   000000018006a7b0     c2_Modele_3D.obj
 0003:00006800       $SG26736                   000000018006a800     c2_Modele_3D.obj
 0003:00006810       $SG26737                   000000018006a810     c2_Modele_3D.obj
 0003:00006860       $SG26739                   000000018006a860     c2_Modele_3D.obj
 0003:00006870       $SG26740                   000000018006a870     c2_Modele_3D.obj
 0003:000068c0       $SG26742                   000000018006a8c0     c2_Modele_3D.obj
 0003:000068d0       $SG26743                   000000018006a8d0     c2_Modele_3D.obj
 0003:00006920       $SG26745                   000000018006a920     c2_Modele_3D.obj
 0003:00006930       $SG26746                   000000018006a930     c2_Modele_3D.obj
 0003:00006980       $SG26748                   000000018006a980     c2_Modele_3D.obj
 0003:00006990       $SG26749                   000000018006a990     c2_Modele_3D.obj
 0003:000069e0       $SG26751                   000000018006a9e0     c2_Modele_3D.obj
 0003:000069f0       $SG26752                   000000018006a9f0     c2_Modele_3D.obj
 0003:00006a40       $SG26754                   000000018006aa40     c2_Modele_3D.obj
 0003:00006a50       $SG26755                   000000018006aa50     c2_Modele_3D.obj
 0003:00006aa0       $SG26758                   000000018006aaa0     c2_Modele_3D.obj
 0003:00006af0       $SG26761                   000000018006aaf0     c2_Modele_3D.obj
 0003:00006b38       $SG26763                   000000018006ab38     c2_Modele_3D.obj
 0003:00006b50       $SG26764                   000000018006ab50     c2_Modele_3D.obj
 0003:00006ba0       $SG26766                   000000018006aba0     c2_Modele_3D.obj
 0003:00006bb0       $SG26767                   000000018006abb0     c2_Modele_3D.obj
 0003:00006c00       $SG26769                   000000018006ac00     c2_Modele_3D.obj
 0003:00006c10       $SG26770                   000000018006ac10     c2_Modele_3D.obj
 0003:00006c60       $SG26772                   000000018006ac60     c2_Modele_3D.obj
 0003:00006c70       $SG26773                   000000018006ac70     c2_Modele_3D.obj
 0003:00006cc0       $SG26775                   000000018006acc0     c2_Modele_3D.obj
 0003:00006cd0       $SG26776                   000000018006acd0     c2_Modele_3D.obj
 0003:00006d20       $SG26778                   000000018006ad20     c2_Modele_3D.obj
 0003:00006d30       $SG26779                   000000018006ad30     c2_Modele_3D.obj
 0003:00006d80       $SG26781                   000000018006ad80     c2_Modele_3D.obj
 0003:00006d90       $SG26782                   000000018006ad90     c2_Modele_3D.obj
 0003:00006de0       $SG26784                   000000018006ade0     c2_Modele_3D.obj
 0003:00006df0       $SG26785                   000000018006adf0     c2_Modele_3D.obj
 0003:00006e40       $SG26787                   000000018006ae40     c2_Modele_3D.obj
 0003:00006e50       $SG26788                   000000018006ae50     c2_Modele_3D.obj
 0003:00006ea0       $SG26790                   000000018006aea0     c2_Modele_3D.obj
 0003:00006eb0       $SG26791                   000000018006aeb0     c2_Modele_3D.obj
 0003:00006f00       $SG26793                   000000018006af00     c2_Modele_3D.obj
 0003:00006f10       $SG26794                   000000018006af10     c2_Modele_3D.obj
 0003:00006f60       $SG26796                   000000018006af60     c2_Modele_3D.obj
 0003:00006f70       $SG26797                   000000018006af70     c2_Modele_3D.obj
 0003:00006fc0       $SG26799                   000000018006afc0     c2_Modele_3D.obj
 0003:00006fd0       $SG26800                   000000018006afd0     c2_Modele_3D.obj
 0003:00007020       $SG26802                   000000018006b020     c2_Modele_3D.obj
 0003:00007030       $SG26803                   000000018006b030     c2_Modele_3D.obj
 0003:00007080       $SG26805                   000000018006b080     c2_Modele_3D.obj
 0003:00007090       $SG26806                   000000018006b090     c2_Modele_3D.obj
 0003:000070e0       $SG26808                   000000018006b0e0     c2_Modele_3D.obj
 0003:000070f0       $SG26809                   000000018006b0f0     c2_Modele_3D.obj
 0003:00007140       $SG26811                   000000018006b140     c2_Modele_3D.obj
 0003:00007150       $SG26812                   000000018006b150     c2_Modele_3D.obj
 0003:000071a0       $SG26814                   000000018006b1a0     c2_Modele_3D.obj
 0003:000071b0       $SG26815                   000000018006b1b0     c2_Modele_3D.obj
 0003:00007200       $SG26817                   000000018006b200     c2_Modele_3D.obj
 0003:00007210       $SG26818                   000000018006b210     c2_Modele_3D.obj
 0003:00007260       $SG26820                   000000018006b260     c2_Modele_3D.obj
 0003:00007270       $SG26821                   000000018006b270     c2_Modele_3D.obj
 0003:000072c0       $SG26823                   000000018006b2c0     c2_Modele_3D.obj
 0003:000072d0       $SG26824                   000000018006b2d0     c2_Modele_3D.obj
 0003:00007320       $SG26827                   000000018006b320     c2_Modele_3D.obj
 0003:00007388       $SG26829                   000000018006b388     c2_Modele_3D.obj
 0003:000073a0       $SG26830                   000000018006b3a0     c2_Modele_3D.obj
 0003:000073f0       $SG26832                   000000018006b3f0     c2_Modele_3D.obj
 0003:00007400       $SG26833                   000000018006b400     c2_Modele_3D.obj
 0003:00007450       $SG26835                   000000018006b450     c2_Modele_3D.obj
 0003:00007460       $SG26836                   000000018006b460     c2_Modele_3D.obj
 0003:000074b0       $SG26838                   000000018006b4b0     c2_Modele_3D.obj
 0003:000074c0       $SG26839                   000000018006b4c0     c2_Modele_3D.obj
 0003:00007510       $SG26841                   000000018006b510     c2_Modele_3D.obj
 0003:00007520       $SG26842                   000000018006b520     c2_Modele_3D.obj
 0003:00007588       $SG26844                   000000018006b588     c2_Modele_3D.obj
 0003:000075a0       $SG26845                   000000018006b5a0     c2_Modele_3D.obj
 0003:00007608       $SG26847                   000000018006b608     c2_Modele_3D.obj
 0003:00007620       $SG26848                   000000018006b620     c2_Modele_3D.obj
 0003:00007688       $SG26850                   000000018006b688     c2_Modele_3D.obj
 0003:000076a0       $SG26851                   000000018006b6a0     c2_Modele_3D.obj
 0003:00007710       $SG26854                   000000018006b710     c2_Modele_3D.obj
 0003:00007778       $SG26856                   000000018006b778     c2_Modele_3D.obj
 0003:00007790       $SG26857                   000000018006b790     c2_Modele_3D.obj
 0003:000077f8       $SG26859                   000000018006b7f8     c2_Modele_3D.obj
 0003:00007810       $SG26860                   000000018006b810     c2_Modele_3D.obj
 0003:00007878       $SG26862                   000000018006b878     c2_Modele_3D.obj
 0003:00007890       $SG26863                   000000018006b890     c2_Modele_3D.obj
 0003:00007900       $SG26866                   000000018006b900     c2_Modele_3D.obj
 0003:00007950       $SG26869                   000000018006b950     c2_Modele_3D.obj
 0003:00007998       $SG26871                   000000018006b998     c2_Modele_3D.obj
 0003:000079b0       $SG26872                   000000018006b9b0     c2_Modele_3D.obj
 0003:00007a18       $SG26874                   000000018006ba18     c2_Modele_3D.obj
 0003:00007a30       $SG26875                   000000018006ba30     c2_Modele_3D.obj
 0003:00007a98       $SG26877                   000000018006ba98     c2_Modele_3D.obj
 0003:00007ab0       $SG26878                   000000018006bab0     c2_Modele_3D.obj
 0003:00007b18       $SG26880                   000000018006bb18     c2_Modele_3D.obj
 0003:00007b30       $SG26881                   000000018006bb30     c2_Modele_3D.obj
 0003:00007b98       $SG26883                   000000018006bb98     c2_Modele_3D.obj
 0003:00007bb0       $SG26884                   000000018006bbb0     c2_Modele_3D.obj
 0003:00007c18       $SG26886                   000000018006bc18     c2_Modele_3D.obj
 0003:00007c30       $SG26887                   000000018006bc30     c2_Modele_3D.obj
 0003:00007c98       $SG26889                   000000018006bc98     c2_Modele_3D.obj
 0003:00007cb0       $SG26890                   000000018006bcb0     c2_Modele_3D.obj
 0003:00007d18       $SG26892                   000000018006bd18     c2_Modele_3D.obj
 0003:00007d30       $SG26893                   000000018006bd30     c2_Modele_3D.obj
 0003:00007d98       $SG26895                   000000018006bd98     c2_Modele_3D.obj
 0003:00007db0       $SG26896                   000000018006bdb0     c2_Modele_3D.obj
 0003:00007e18       $SG26898                   000000018006be18     c2_Modele_3D.obj
 0003:00007e30       $SG26899                   000000018006be30     c2_Modele_3D.obj
 0003:00007e98       $SG26901                   000000018006be98     c2_Modele_3D.obj
 0003:00007eb0       $SG26902                   000000018006beb0     c2_Modele_3D.obj
 0003:00007f20       $SG26905                   000000018006bf20     c2_Modele_3D.obj
 0003:00007f68       $SG26907                   000000018006bf68     c2_Modele_3D.obj
 0003:00007f80       $SG26908                   000000018006bf80     c2_Modele_3D.obj
 0003:00007fe8       $SG26910                   000000018006bfe8     c2_Modele_3D.obj
 0003:00008000       $SG26911                   000000018006c000     c2_Modele_3D.obj
 0003:00008050       $SG26914                   000000018006c050     c2_Modele_3D.obj
 0003:000080a0       $SG26917                   000000018006c0a0     c2_Modele_3D.obj
 0003:000080e8       $SG26919                   000000018006c0e8     c2_Modele_3D.obj
 0003:00008100       $SG26920                   000000018006c100     c2_Modele_3D.obj
 0003:00008150       $SG26922                   000000018006c150     c2_Modele_3D.obj
 0003:00008160       $SG26923                   000000018006c160     c2_Modele_3D.obj
 0003:000081b0       $SG26925                   000000018006c1b0     c2_Modele_3D.obj
 0003:000081c0       $SG26926                   000000018006c1c0     c2_Modele_3D.obj
 0003:00008228       $SG26928                   000000018006c228     c2_Modele_3D.obj
 0003:00008240       $SG26929                   000000018006c240     c2_Modele_3D.obj
 0003:000082b0       $SG26932                   000000018006c2b0     c2_Modele_3D.obj
 0003:00008310       $SG26935                   000000018006c310     c2_Modele_3D.obj
 0003:00008368       $SG26937                   000000018006c368     c2_Modele_3D.obj
 0003:00008380       $SG26938                   000000018006c380     c2_Modele_3D.obj
 0003:000083d0       $SG26940                   000000018006c3d0     c2_Modele_3D.obj
 0003:000083f0       $SG26941                   000000018006c3f0     c2_Modele_3D.obj
 0003:00008450       $SG26943                   000000018006c450     c2_Modele_3D.obj
 0003:00008460       $SG26944                   000000018006c460     c2_Modele_3D.obj
 0003:000084c8       $SG26946                   000000018006c4c8     c2_Modele_3D.obj
 0003:000084e0       $SG26947                   000000018006c4e0     c2_Modele_3D.obj
 0003:00008548       $SG26949                   000000018006c548     c2_Modele_3D.obj
 0003:00008560       $SG26950                   000000018006c560     c2_Modele_3D.obj
 0003:000085c8       $SG26952                   000000018006c5c8     c2_Modele_3D.obj
 0003:000085e0       $SG26953                   000000018006c5e0     c2_Modele_3D.obj
 0003:00008650       $SG26956                   000000018006c650     c2_Modele_3D.obj
 0003:000086a0       $SG26959                   000000018006c6a0     c2_Modele_3D.obj
 0003:000086f0       $SG26962                   000000018006c6f0     c2_Modele_3D.obj
 0003:00008738       $SG26964                   000000018006c738     c2_Modele_3D.obj
 0003:00008750       $SG26965                   000000018006c750     c2_Modele_3D.obj
 0003:000087c0       $SG26968                   000000018006c7c0     c2_Modele_3D.obj
 0003:00008810       $SG26971                   000000018006c810     c2_Modele_3D.obj
 0003:00008880       $SG26974                   000000018006c880     c2_Modele_3D.obj
 0003:000088e8       $SG26976                   000000018006c8e8     c2_Modele_3D.obj
 0003:00008900       $SG26977                   000000018006c900     c2_Modele_3D.obj
 0003:00008950       $SG26980                   000000018006c950     c2_Modele_3D.obj
 0003:00008960       $SG26983                   000000018006c960     c2_Modele_3D.obj
 0003:00008970       $SG26985                   000000018006c970     c2_Modele_3D.obj
 0003:00008980       $SG26986                   000000018006c980     c2_Modele_3D.obj
 0003:000089e8       $SG26988                   000000018006c9e8     c2_Modele_3D.obj
 0003:00008a00       $SG26989                   000000018006ca00     c2_Modele_3D.obj
 0003:00008a68       $SG26991                   000000018006ca68     c2_Modele_3D.obj
 0003:00008a80       $SG26992                   000000018006ca80     c2_Modele_3D.obj
 0003:00008ae8       $SG26994                   000000018006cae8     c2_Modele_3D.obj
 0003:00008b00       $SG26995                   000000018006cb00     c2_Modele_3D.obj
 0003:00008b68       $SG26997                   000000018006cb68     c2_Modele_3D.obj
 0003:00008b80       $SG26998                   000000018006cb80     c2_Modele_3D.obj
 0003:00008be8       $SG27002                   000000018006cbe8     c2_Modele_3D.obj
 0003:00008bf8       $SG27006                   000000018006cbf8     c2_Modele_3D.obj
 0003:00008c08       $SG27008                   000000018006cc08     c2_Modele_3D.obj
 0003:00008c20       $SG27009                   000000018006cc20     c2_Modele_3D.obj
 0003:00008c70       $SG27012                   000000018006cc70     c2_Modele_3D.obj
 0003:00008c80       $SG27013                   000000018006cc80     c2_Modele_3D.obj
 0003:00008cd0       $SG27015                   000000018006ccd0     c2_Modele_3D.obj
 0003:00008ce0       $SG27016                   000000018006cce0     c2_Modele_3D.obj
 0003:00008d30       $SG27018                   000000018006cd30     c2_Modele_3D.obj
 0003:00008d40       $SG27019                   000000018006cd40     c2_Modele_3D.obj
 0003:00008d90       $SG27022                   000000018006cd90     c2_Modele_3D.obj
 0003:00008da0       $SG27023                   000000018006cda0     c2_Modele_3D.obj
 0003:00008df0       $SG27025                   000000018006cdf0     c2_Modele_3D.obj
 0003:00008e00       $SG27026                   000000018006ce00     c2_Modele_3D.obj
 0003:00008e50       $SG27028                   000000018006ce50     c2_Modele_3D.obj
 0003:00008e60       $SG27029                   000000018006ce60     c2_Modele_3D.obj
 0003:00008eb0       $SG27031                   000000018006ceb0     c2_Modele_3D.obj
 0003:00008ec0       $SG27032                   000000018006cec0     c2_Modele_3D.obj
 0003:00008f10       $SG27035                   000000018006cf10     c2_Modele_3D.obj
 0003:00008f80       $SG27039                   000000018006cf80     c2_Modele_3D.obj
 0003:00008fe8       $SG27041                   000000018006cfe8     c2_Modele_3D.obj
 0003:00009000       $SG27042                   000000018006d000     c2_Modele_3D.obj
 0003:00009050       $SG27045                   000000018006d050     c2_Modele_3D.obj
 0003:00009060       $SG27046                   000000018006d060     c2_Modele_3D.obj
 0003:000090b0       $SG27048                   000000018006d0b0     c2_Modele_3D.obj
 0003:000090c0       $SG27049                   000000018006d0c0     c2_Modele_3D.obj
 0003:00009110       $SG27051                   000000018006d110     c2_Modele_3D.obj
 0003:00009120       $SG27052                   000000018006d120     c2_Modele_3D.obj
 0003:00009188       $SG27055                   000000018006d188     c2_Modele_3D.obj
 0003:000091a0       $SG27056                   000000018006d1a0     c2_Modele_3D.obj
 0003:00009208       $SG27058                   000000018006d208     c2_Modele_3D.obj
 0003:00009220       $SG27059                   000000018006d220     c2_Modele_3D.obj
 0003:00009288       $SG27061                   000000018006d288     c2_Modele_3D.obj
 0003:000092a0       $SG27062                   000000018006d2a0     c2_Modele_3D.obj
 0003:00009310       $SG27066                   000000018006d310     c2_Modele_3D.obj
 0003:00009380       $SG27069                   000000018006d380     c2_Modele_3D.obj
 0003:000093f0       $SG27072                   000000018006d3f0     c2_Modele_3D.obj
 0003:00009400       $SG27073                   000000018006d400     c2_Modele_3D.obj
 0003:00009450       $SG27075                   000000018006d450     c2_Modele_3D.obj
 0003:00009460       $SG27076                   000000018006d460     c2_Modele_3D.obj
 0003:000094b0       $SG27078                   000000018006d4b0     c2_Modele_3D.obj
 0003:000094c0       $SG27079                   000000018006d4c0     c2_Modele_3D.obj
 0003:00009510       $SG27081                   000000018006d510     c2_Modele_3D.obj
 0003:00009520       $SG27082                   000000018006d520     c2_Modele_3D.obj
 0003:00009570       $SG27085                   000000018006d570     c2_Modele_3D.obj
 0003:00009580       $SG27086                   000000018006d580     c2_Modele_3D.obj
 0003:000095d0       $SG27088                   000000018006d5d0     c2_Modele_3D.obj
 0003:000095e0       $SG27089                   000000018006d5e0     c2_Modele_3D.obj
 0003:00009630       $SG27092                   000000018006d630     c2_Modele_3D.obj
 0003:00009640       $SG27093                   000000018006d640     c2_Modele_3D.obj
 0003:00009690       $SG27095                   000000018006d690     c2_Modele_3D.obj
 0003:000096a0       $SG27096                   000000018006d6a0     c2_Modele_3D.obj
 0003:000096f0       $SG27099                   000000018006d6f0     c2_Modele_3D.obj
 0003:00009700       $SG27100                   000000018006d700     c2_Modele_3D.obj
 0003:00009750       $SG27102                   000000018006d750     c2_Modele_3D.obj
 0003:00009760       $SG27103                   000000018006d760     c2_Modele_3D.obj
 0003:000097b0       $SG27106                   000000018006d7b0     c2_Modele_3D.obj
 0003:000097c0       $SG27107                   000000018006d7c0     c2_Modele_3D.obj
 0003:00009810       $SG27109                   000000018006d810     c2_Modele_3D.obj
 0003:00009820       $SG27110                   000000018006d820     c2_Modele_3D.obj
 0003:00009870       $SG27112                   000000018006d870     c2_Modele_3D.obj
 0003:00009880       $SG27113                   000000018006d880     c2_Modele_3D.obj
 0003:000098d0       $SG27116                   000000018006d8d0     c2_Modele_3D.obj
 0003:000098e0       $SG27117                   000000018006d8e0     c2_Modele_3D.obj
 0003:00009930       $SG27119                   000000018006d930     c2_Modele_3D.obj
 0003:00009940       $SG27120                   000000018006d940     c2_Modele_3D.obj
 0003:00009990       $SG27122                   000000018006d990     c2_Modele_3D.obj
 0003:000099a0       $SG27123                   000000018006d9a0     c2_Modele_3D.obj
 0003:000099f0       $SG27126                   000000018006d9f0     c2_Modele_3D.obj
 0003:00009a00       $SG27127                   000000018006da00     c2_Modele_3D.obj
 0003:00009a50       $SG27129                   000000018006da50     c2_Modele_3D.obj
 0003:00009a60       $SG27130                   000000018006da60     c2_Modele_3D.obj
 0003:00009ac8       $SG27132                   000000018006dac8     c2_Modele_3D.obj
 0003:00009ae0       $SG27133                   000000018006dae0     c2_Modele_3D.obj
 0003:00009b48       $SG27136                   000000018006db48     c2_Modele_3D.obj
 0003:00009b60       $SG27137                   000000018006db60     c2_Modele_3D.obj
 0003:00009bc8       $SG27139                   000000018006dbc8     c2_Modele_3D.obj
 0003:00009be0       $SG27140                   000000018006dbe0     c2_Modele_3D.obj
 0003:00009c48       $SG27143                   000000018006dc48     c2_Modele_3D.obj
 0003:00009c60       $SG27144                   000000018006dc60     c2_Modele_3D.obj
 0003:00009cc8       $SG27146                   000000018006dcc8     c2_Modele_3D.obj
 0003:00009ce0       $SG27147                   000000018006dce0     c2_Modele_3D.obj
 0003:00009d48       $SG27150                   000000018006dd48     c2_Modele_3D.obj
 0003:00009d60       $SG27151                   000000018006dd60     c2_Modele_3D.obj
 0003:00009dc8       $SG27153                   000000018006ddc8     c2_Modele_3D.obj
 0003:00009de0       $SG27154                   000000018006dde0     c2_Modele_3D.obj
 0003:00009e48       $SG27157                   000000018006de48     c2_Modele_3D.obj
 0003:00009e60       $SG27158                   000000018006de60     c2_Modele_3D.obj
 0003:00009ec8       $SG27161                   000000018006dec8     c2_Modele_3D.obj
 0003:00009ee0       $SG27162                   000000018006dee0     c2_Modele_3D.obj
 0003:00009f48       $SG27164                   000000018006df48     c2_Modele_3D.obj
 0003:00009f60       $SG27165                   000000018006df60     c2_Modele_3D.obj
 0003:00009fc8       $SG27168                   000000018006dfc8     c2_Modele_3D.obj
 0003:00009fe0       $SG27169                   000000018006dfe0     c2_Modele_3D.obj
 0003:0000a048       $SG27172                   000000018006e048     c2_Modele_3D.obj
 0003:0000a060       $SG27173                   000000018006e060     c2_Modele_3D.obj
 0003:0000a0c8       $SG27176                   000000018006e0c8     c2_Modele_3D.obj
 0003:0000a0e0       $SG27177                   000000018006e0e0     c2_Modele_3D.obj
 0003:0000a148       $SG27179                   000000018006e148     c2_Modele_3D.obj
 0003:0000a160       $SG27180                   000000018006e160     c2_Modele_3D.obj
 0003:0000a1c8       $SG27182                   000000018006e1c8     c2_Modele_3D.obj
 0003:0000a1e0       $SG27183                   000000018006e1e0     c2_Modele_3D.obj
 0003:0000a248       $SG27186                   000000018006e248     c2_Modele_3D.obj
 0003:0000a260       $SG27187                   000000018006e260     c2_Modele_3D.obj
 0003:0000a2c8       $SG27189                   000000018006e2c8     c2_Modele_3D.obj
 0003:0000a2e0       $SG27190                   000000018006e2e0     c2_Modele_3D.obj
 0003:0000a348       $SG27193                   000000018006e348     c2_Modele_3D.obj
 0003:0000a360       $SG27194                   000000018006e360     c2_Modele_3D.obj
 0003:0000a3c8       $SG27197                   000000018006e3c8     c2_Modele_3D.obj
 0003:0000a3e0       $SG27198                   000000018006e3e0     c2_Modele_3D.obj
 0003:0000a448       $SG27200                   000000018006e448     c2_Modele_3D.obj
 0003:0000a460       $SG27201                   000000018006e460     c2_Modele_3D.obj
 0003:0000a4c8       $SG27204                   000000018006e4c8     c2_Modele_3D.obj
 0003:0000a4e0       $SG27205                   000000018006e4e0     c2_Modele_3D.obj
 0003:0000a548       $SG27207                   000000018006e548     c2_Modele_3D.obj
 0003:0000a560       $SG27208                   000000018006e560     c2_Modele_3D.obj
 0003:0000a5c8       $SG27211                   000000018006e5c8     c2_Modele_3D.obj
 0003:0000a5e0       $SG27212                   000000018006e5e0     c2_Modele_3D.obj
 0003:0000a648       $SG27214                   000000018006e648     c2_Modele_3D.obj
 0003:0000a660       $SG27215                   000000018006e660     c2_Modele_3D.obj
 0003:0000a6d0       $SG27218                   000000018006e6d0     c2_Modele_3D.obj
 0003:0000a718       $SG27220                   000000018006e718     c2_Modele_3D.obj
 0003:0000a730       $SG27221                   000000018006e730     c2_Modele_3D.obj
 0003:0000a798       $SG27223                   000000018006e798     c2_Modele_3D.obj
 0003:0000a7b0       $SG27224                   000000018006e7b0     c2_Modele_3D.obj
 0003:0000a800       $SG27227                   000000018006e800     c2_Modele_3D.obj
 0003:0000a810       $SG27228                   000000018006e810     c2_Modele_3D.obj
 0003:0000a860       $SG27230                   000000018006e860     c2_Modele_3D.obj
 0003:0000a870       $SG27231                   000000018006e870     c2_Modele_3D.obj
 0003:0000a8d8       $SG27234                   000000018006e8d8     c2_Modele_3D.obj
 0003:0000a8f0       $SG27235                   000000018006e8f0     c2_Modele_3D.obj
 0003:0000a958       $SG27238                   000000018006e958     c2_Modele_3D.obj
 0003:0000a970       $SG27239                   000000018006e970     c2_Modele_3D.obj
 0003:0000a9d8       $SG27242                   000000018006e9d8     c2_Modele_3D.obj
 0003:0000a9f0       $SG27243                   000000018006e9f0     c2_Modele_3D.obj
 0003:0000aa58       $SG27245                   000000018006ea58     c2_Modele_3D.obj
 0003:0000aa70       $SG27246                   000000018006ea70     c2_Modele_3D.obj
 0003:0000aad8       $SG27249                   000000018006ead8     c2_Modele_3D.obj
 0003:0000aaf0       $SG27250                   000000018006eaf0     c2_Modele_3D.obj
 0003:0000ab58       $SG27253                   000000018006eb58     c2_Modele_3D.obj
 0003:0000ab70       $SG27254                   000000018006eb70     c2_Modele_3D.obj
 0003:0000abd8       $SG27256                   000000018006ebd8     c2_Modele_3D.obj
 0003:0000abf0       $SG27257                   000000018006ebf0     c2_Modele_3D.obj
 0003:0000ac58       $SG27260                   000000018006ec58     c2_Modele_3D.obj
 0003:0000ac70       $SG27261                   000000018006ec70     c2_Modele_3D.obj
 0003:0000acd8       $SG27263                   000000018006ecd8     c2_Modele_3D.obj
 0003:0000acf0       $SG27264                   000000018006ecf0     c2_Modele_3D.obj
 0003:0000ad58       $SG27267                   000000018006ed58     c2_Modele_3D.obj
 0003:0000ad70       $SG27268                   000000018006ed70     c2_Modele_3D.obj
 0003:0000add8       $SG27270                   000000018006edd8     c2_Modele_3D.obj
 0003:0000adf0       $SG27271                   000000018006edf0     c2_Modele_3D.obj
 0003:0000ae58       $SG27273                   000000018006ee58     c2_Modele_3D.obj
 0003:0000ae70       $SG27274                   000000018006ee70     c2_Modele_3D.obj
 0003:0000aed8       $SG27276                   000000018006eed8     c2_Modele_3D.obj
 0003:0000aef0       $SG27277                   000000018006eef0     c2_Modele_3D.obj
 0003:0000af58       $SG27280                   000000018006ef58     c2_Modele_3D.obj
 0003:0000af70       $SG27281                   000000018006ef70     c2_Modele_3D.obj
 0003:0000afd8       $SG27284                   000000018006efd8     c2_Modele_3D.obj
 0003:0000aff0       $SG27285                   000000018006eff0     c2_Modele_3D.obj
 0003:0000b058       $SG27287                   000000018006f058     c2_Modele_3D.obj
 0003:0000b070       $SG27288                   000000018006f070     c2_Modele_3D.obj
 0003:0000b0d8       $SG27290                   000000018006f0d8     c2_Modele_3D.obj
 0003:0000b0f0       $SG27291                   000000018006f0f0     c2_Modele_3D.obj
 0003:0000b158       $SG27294                   000000018006f158     c2_Modele_3D.obj
 0003:0000b170       $SG27295                   000000018006f170     c2_Modele_3D.obj
 0003:0000b1d8       $SG27297                   000000018006f1d8     c2_Modele_3D.obj
 0003:0000b1f0       $SG27298                   000000018006f1f0     c2_Modele_3D.obj
 0003:0000b258       $SG27301                   000000018006f258     c2_Modele_3D.obj
 0003:0000b270       $SG27302                   000000018006f270     c2_Modele_3D.obj
 0003:0000b2d8       $SG27304                   000000018006f2d8     c2_Modele_3D.obj
 0003:0000b2f0       $SG27305                   000000018006f2f0     c2_Modele_3D.obj
 0003:0000b358       $SG27308                   000000018006f358     c2_Modele_3D.obj
 0003:0000b370       $SG27309                   000000018006f370     c2_Modele_3D.obj
 0003:0000b3d8       $SG27312                   000000018006f3d8     c2_Modele_3D.obj
 0003:0000b3f0       $SG27313                   000000018006f3f0     c2_Modele_3D.obj
 0003:0000b458       $SG27316                   000000018006f458     c2_Modele_3D.obj
 0003:0000b470       $SG27317                   000000018006f470     c2_Modele_3D.obj
 0003:0000b4d8       $SG27320                   000000018006f4d8     c2_Modele_3D.obj
 0003:0000b4f0       $SG27321                   000000018006f4f0     c2_Modele_3D.obj
 0003:0000b558       $SG27324                   000000018006f558     c2_Modele_3D.obj
 0003:0000b570       $SG27325                   000000018006f570     c2_Modele_3D.obj
 0003:0000b5d8       $SG27328                   000000018006f5d8     c2_Modele_3D.obj
 0003:0000b5f0       $SG27329                   000000018006f5f0     c2_Modele_3D.obj
 0003:0000b640       $SG27332                   000000018006f640     c2_Modele_3D.obj
 0003:0000b650       $SG27333                   000000018006f650     c2_Modele_3D.obj
 0003:0000b6a0       $SG27335                   000000018006f6a0     c2_Modele_3D.obj
 0003:0000b6b0       $SG27336                   000000018006f6b0     c2_Modele_3D.obj
 0003:0000b718       $SG27338                   000000018006f718     c2_Modele_3D.obj
 0003:0000b730       $SG27339                   000000018006f730     c2_Modele_3D.obj
 0003:0000b798       $SG27342                   000000018006f798     c2_Modele_3D.obj
 0003:0000b7b0       $SG27343                   000000018006f7b0     c2_Modele_3D.obj
 0003:0000b818       $SG27346                   000000018006f818     c2_Modele_3D.obj
 0003:0000b830       $SG27347                   000000018006f830     c2_Modele_3D.obj
 0003:0000b8a0       $SG27351                   000000018006f8a0     c2_Modele_3D.obj
 0003:0000b908       $SG27354                   000000018006f908     c2_Modele_3D.obj
 0003:0000b920       $SG27355                   000000018006f920     c2_Modele_3D.obj
 0003:0000b988       $SG27358                   000000018006f988     c2_Modele_3D.obj
 0003:0000b9a0       $SG27359                   000000018006f9a0     c2_Modele_3D.obj
 0003:0000ba08       $SG27361                   000000018006fa08     c2_Modele_3D.obj
 0003:0000ba20       $SG27362                   000000018006fa20     c2_Modele_3D.obj
 0003:0000ba88       $SG27364                   000000018006fa88     c2_Modele_3D.obj
 0003:0000baa0       $SG27365                   000000018006faa0     c2_Modele_3D.obj
 0003:0000bb08       $SG27367                   000000018006fb08     c2_Modele_3D.obj
 0003:0000bb20       $SG27368                   000000018006fb20     c2_Modele_3D.obj
 0003:0000bb88       $SG27370                   000000018006fb88     c2_Modele_3D.obj
 0003:0000bba0       $SG27371                   000000018006fba0     c2_Modele_3D.obj
 0003:0000bc08       c2_emlrtMCI                000000018006fc08     c2_Modele_3D.obj
 0003:0000bc20       c2_b_emlrtMCI              000000018006fc20     c2_Modele_3D.obj
 0003:0000bc38       c2_c_emlrtMCI              000000018006fc38     c2_Modele_3D.obj
 0003:0000bc50       c2_d_emlrtMCI              000000018006fc50     c2_Modele_3D.obj
 0003:0000bc68       c2_e_emlrtMCI              000000018006fc68     c2_Modele_3D.obj
 0003:0000bc80       c2_f_emlrtMCI              000000018006fc80     c2_Modele_3D.obj
 0003:0000bc98       c2_h_emlrtMCI              000000018006fc98     c2_Modele_3D.obj
 0003:0000bcb0       c2_i_emlrtMCI              000000018006fcb0     c2_Modele_3D.obj
 0003:0000bcc8       c2_k_emlrtMCI              000000018006fcc8     c2_Modele_3D.obj
 0003:0000bce0       c2_l_emlrtMCI              000000018006fce0     c2_Modele_3D.obj
 0003:0000bcf8       c2_m_emlrtMCI              000000018006fcf8     c2_Modele_3D.obj
 0003:0000bd10       c2_n_emlrtMCI              000000018006fd10     c2_Modele_3D.obj
 0003:0000bd28       c2_o_emlrtMCI              000000018006fd28     c2_Modele_3D.obj
 0003:0000bd40       c2_p_emlrtMCI              000000018006fd40     c2_Modele_3D.obj
 0003:0000bd58       c2_q_emlrtMCI              000000018006fd58     c2_Modele_3D.obj
 0003:0000bd70       c2_r_emlrtMCI              000000018006fd70     c2_Modele_3D.obj
 0003:0000bd88       c2_s_emlrtMCI              000000018006fd88     c2_Modele_3D.obj
 0003:0000bda0       c2_t_emlrtMCI              000000018006fda0     c2_Modele_3D.obj
 0003:0000bdb8       c2_u_emlrtMCI              000000018006fdb8     c2_Modele_3D.obj
 0003:0000bdd0       c2_v_emlrtMCI              000000018006fdd0     c2_Modele_3D.obj
 0003:0000bde8       c2_w_emlrtMCI              000000018006fde8     c2_Modele_3D.obj
 0003:0000be00       c2_x_emlrtMCI              000000018006fe00     c2_Modele_3D.obj
 0003:0000be18       c2_y_emlrtMCI              000000018006fe18     c2_Modele_3D.obj
 0003:0000be30       c2_ab_emlrtMCI             000000018006fe30     c2_Modele_3D.obj
 0003:0000be48       c2_bb_emlrtMCI             000000018006fe48     c2_Modele_3D.obj
 0003:0000be60       c2_cb_emlrtMCI             000000018006fe60     c2_Modele_3D.obj
 0003:0000be78       c2_db_emlrtMCI             000000018006fe78     c2_Modele_3D.obj
 0003:0000be90       c2_eb_emlrtMCI             000000018006fe90     c2_Modele_3D.obj
 0003:0000bea8       c2_gb_emlrtMCI             000000018006fea8     c2_Modele_3D.obj
 0003:0000bec0       c2_emlrtRSI                000000018006fec0     c2_Modele_3D.obj
 0003:0000bed8       c2_b_emlrtRSI              000000018006fed8     c2_Modele_3D.obj
 0003:0000bef0       c2_c_emlrtRSI              000000018006fef0     c2_Modele_3D.obj
 0003:0000bf08       c2_d_emlrtRSI              000000018006ff08     c2_Modele_3D.obj
 0003:0000bf20       c2_e_emlrtRSI              000000018006ff20     c2_Modele_3D.obj
 0003:0000bf38       c2_f_emlrtRSI              000000018006ff38     c2_Modele_3D.obj
 0003:0000bf50       c2_g_emlrtRSI              000000018006ff50     c2_Modele_3D.obj
 0003:0000bf68       c2_h_emlrtRSI              000000018006ff68     c2_Modele_3D.obj
 0003:0000bf80       c2_i_emlrtRSI              000000018006ff80     c2_Modele_3D.obj
 0003:0000bf98       c2_j_emlrtRSI              000000018006ff98     c2_Modele_3D.obj
 0003:0000bfb0       c2_k_emlrtRSI              000000018006ffb0     c2_Modele_3D.obj
 0003:0000bfc8       c2_l_emlrtRSI              000000018006ffc8     c2_Modele_3D.obj
 0003:0000bfe0       c2_m_emlrtRSI              000000018006ffe0     c2_Modele_3D.obj
 0003:0000bff8       c2_n_emlrtRSI              000000018006fff8     c2_Modele_3D.obj
 0003:0000c010       c2_o_emlrtRSI              0000000180070010     c2_Modele_3D.obj
 0003:0000c028       c2_p_emlrtRSI              0000000180070028     c2_Modele_3D.obj
 0003:0000c040       c2_q_emlrtRSI              0000000180070040     c2_Modele_3D.obj
 0003:0000c058       c2_r_emlrtRSI              0000000180070058     c2_Modele_3D.obj
 0003:0000c070       c2_s_emlrtRSI              0000000180070070     c2_Modele_3D.obj
 0003:0000c088       c2_t_emlrtRSI              0000000180070088     c2_Modele_3D.obj
 0003:0000c0a0       c2_u_emlrtRSI              00000001800700a0     c2_Modele_3D.obj
 0003:0000c0b8       c2_v_emlrtRSI              00000001800700b8     c2_Modele_3D.obj
 0003:0000c0d0       c2_w_emlrtRSI              00000001800700d0     c2_Modele_3D.obj
 0003:0000c0e8       c2_x_emlrtRSI              00000001800700e8     c2_Modele_3D.obj
 0003:0000c100       c2_y_emlrtRSI              0000000180070100     c2_Modele_3D.obj
 0003:0000c118       c2_ab_emlrtRSI             0000000180070118     c2_Modele_3D.obj
 0003:0000c130       c2_bb_emlrtRSI             0000000180070130     c2_Modele_3D.obj
 0003:0000c148       c2_cb_emlrtRSI             0000000180070148     c2_Modele_3D.obj
 0003:0000c160       c2_db_emlrtRSI             0000000180070160     c2_Modele_3D.obj
 0003:0000c178       c2_eb_emlrtRSI             0000000180070178     c2_Modele_3D.obj
 0003:0000c190       c2_fb_emlrtRSI             0000000180070190     c2_Modele_3D.obj
 0003:0000c1a8       c2_gb_emlrtRSI             00000001800701a8     c2_Modele_3D.obj
 0003:0000c1c0       c2_hb_emlrtRSI             00000001800701c0     c2_Modele_3D.obj
 0003:0000c1d8       c2_jb_emlrtRSI             00000001800701d8     c2_Modele_3D.obj
 0003:0000c1f0       c2_lb_emlrtRSI             00000001800701f0     c2_Modele_3D.obj
 0003:0000c208       c2_mb_emlrtRSI             0000000180070208     c2_Modele_3D.obj
 0003:0000c220       c2_nb_emlrtRSI             0000000180070220     c2_Modele_3D.obj
 0003:0000c238       c2_ob_emlrtRSI             0000000180070238     c2_Modele_3D.obj
 0003:0000c250       c2_pb_emlrtRSI             0000000180070250     c2_Modele_3D.obj
 0003:0000c268       c2_qb_emlrtRSI             0000000180070268     c2_Modele_3D.obj
 0003:0000c280       c2_rb_emlrtRSI             0000000180070280     c2_Modele_3D.obj
 0003:0000c298       c2_sb_emlrtRSI             0000000180070298     c2_Modele_3D.obj
 0003:0000c2b0       c2_tb_emlrtRSI             00000001800702b0     c2_Modele_3D.obj
 0003:0000c2c8       c2_ub_emlrtRSI             00000001800702c8     c2_Modele_3D.obj
 0003:0000c2e0       c2_vb_emlrtRSI             00000001800702e0     c2_Modele_3D.obj
 0003:0000c2f8       c2_wb_emlrtRSI             00000001800702f8     c2_Modele_3D.obj
 0003:0000c310       c2_xb_emlrtRSI             0000000180070310     c2_Modele_3D.obj
 0003:0000c328       c2_yb_emlrtRSI             0000000180070328     c2_Modele_3D.obj
 0003:0000c340       c2_ac_emlrtRSI             0000000180070340     c2_Modele_3D.obj
 0003:0000c358       c2_bc_emlrtRSI             0000000180070358     c2_Modele_3D.obj
 0003:0000c370       c2_cc_emlrtRSI             0000000180070370     c2_Modele_3D.obj
 0003:0000c388       c2_dc_emlrtRSI             0000000180070388     c2_Modele_3D.obj
 0003:0000c3a0       c2_ec_emlrtRSI             00000001800703a0     c2_Modele_3D.obj
 0003:0000c3b8       c2_fc_emlrtRSI             00000001800703b8     c2_Modele_3D.obj
 0003:0000c3d0       c2_gc_emlrtRSI             00000001800703d0     c2_Modele_3D.obj
 0003:0000c3e8       c2_hc_emlrtRSI             00000001800703e8     c2_Modele_3D.obj
 0003:0000c400       c2_ic_emlrtRSI             0000000180070400     c2_Modele_3D.obj
 0003:0000c418       c2_jc_emlrtRSI             0000000180070418     c2_Modele_3D.obj
 0003:0000c430       c2_kc_emlrtRSI             0000000180070430     c2_Modele_3D.obj
 0003:0000c448       c2_lc_emlrtRSI             0000000180070448     c2_Modele_3D.obj
 0003:0000c460       c2_mc_emlrtRSI             0000000180070460     c2_Modele_3D.obj
 0003:0000c478       c2_nc_emlrtRSI             0000000180070478     c2_Modele_3D.obj
 0003:0000c490       c2_oc_emlrtRSI             0000000180070490     c2_Modele_3D.obj
 0003:0000c4a8       c2_pc_emlrtRSI             00000001800704a8     c2_Modele_3D.obj
 0003:0000c4c0       c2_qc_emlrtRSI             00000001800704c0     c2_Modele_3D.obj
 0003:0000c4d8       c2_rc_emlrtRSI             00000001800704d8     c2_Modele_3D.obj
 0003:0000c4f0       c2_sc_emlrtRSI             00000001800704f0     c2_Modele_3D.obj
 0003:0000c508       c2_tc_emlrtRSI             0000000180070508     c2_Modele_3D.obj
 0003:0000c520       c2_uc_emlrtRSI             0000000180070520     c2_Modele_3D.obj
 0003:0000c538       c2_vc_emlrtRSI             0000000180070538     c2_Modele_3D.obj
 0003:0000c550       c2_wc_emlrtRSI             0000000180070550     c2_Modele_3D.obj
 0003:0000c568       c2_xc_emlrtRSI             0000000180070568     c2_Modele_3D.obj
 0003:0000c580       c2_yc_emlrtRSI             0000000180070580     c2_Modele_3D.obj
 0003:0000c598       c2_ad_emlrtRSI             0000000180070598     c2_Modele_3D.obj
 0003:0000c5b0       c2_bd_emlrtRSI             00000001800705b0     c2_Modele_3D.obj
 0003:0000c5c8       c2_cd_emlrtRSI             00000001800705c8     c2_Modele_3D.obj
 0003:0000c5e0       c2_dd_emlrtRSI             00000001800705e0     c2_Modele_3D.obj
 0003:0000c5f8       c2_ed_emlrtRSI             00000001800705f8     c2_Modele_3D.obj
 0003:0000c610       c2_fd_emlrtRSI             0000000180070610     c2_Modele_3D.obj
 0003:0000c628       c2_gd_emlrtRSI             0000000180070628     c2_Modele_3D.obj
 0003:0000c640       c2_hd_emlrtRSI             0000000180070640     c2_Modele_3D.obj
 0003:0000c658       c2_id_emlrtRSI             0000000180070658     c2_Modele_3D.obj
 0003:0000c670       c2_jd_emlrtRSI             0000000180070670     c2_Modele_3D.obj
 0003:0000c688       c2_kd_emlrtRSI             0000000180070688     c2_Modele_3D.obj
 0003:0000c6a0       c2_ld_emlrtRSI             00000001800706a0     c2_Modele_3D.obj
 0003:0000c6b8       c2_md_emlrtRSI             00000001800706b8     c2_Modele_3D.obj
 0003:0000c6d0       c2_nd_emlrtRSI             00000001800706d0     c2_Modele_3D.obj
 0003:0000c6e8       c2_od_emlrtRSI             00000001800706e8     c2_Modele_3D.obj
 0003:0000c700       c2_pd_emlrtRSI             0000000180070700     c2_Modele_3D.obj
 0003:0000c718       c2_qd_emlrtRSI             0000000180070718     c2_Modele_3D.obj
 0003:0000c730       c2_rd_emlrtRSI             0000000180070730     c2_Modele_3D.obj
 0003:0000c748       c2_sd_emlrtRSI             0000000180070748     c2_Modele_3D.obj
 0003:0000c760       c2_td_emlrtRSI             0000000180070760     c2_Modele_3D.obj
 0003:0000c778       c2_ud_emlrtRSI             0000000180070778     c2_Modele_3D.obj
 0003:0000c790       c2_vd_emlrtRSI             0000000180070790     c2_Modele_3D.obj
 0003:0000c7a8       c2_wd_emlrtRSI             00000001800707a8     c2_Modele_3D.obj
 0003:0000c7c0       c2_xd_emlrtRSI             00000001800707c0     c2_Modele_3D.obj
 0003:0000c7d8       c2_yd_emlrtRSI             00000001800707d8     c2_Modele_3D.obj
 0003:0000c7f0       c2_ae_emlrtRSI             00000001800707f0     c2_Modele_3D.obj
 0003:0000c808       c2_be_emlrtRSI             0000000180070808     c2_Modele_3D.obj
 0003:0000c820       c2_ce_emlrtRSI             0000000180070820     c2_Modele_3D.obj
 0003:0000c838       c2_de_emlrtRSI             0000000180070838     c2_Modele_3D.obj
 0003:0000c850       c2_ee_emlrtRSI             0000000180070850     c2_Modele_3D.obj
 0003:0000c868       c2_fe_emlrtRSI             0000000180070868     c2_Modele_3D.obj
 0003:0000c880       c2_ge_emlrtRSI             0000000180070880     c2_Modele_3D.obj
 0003:0000c898       c2_he_emlrtRSI             0000000180070898     c2_Modele_3D.obj
 0003:0000c8b0       c2_ie_emlrtRSI             00000001800708b0     c2_Modele_3D.obj
 0003:0000c8c8       c2_je_emlrtRSI             00000001800708c8     c2_Modele_3D.obj
 0003:0000c8e0       c2_ke_emlrtRSI             00000001800708e0     c2_Modele_3D.obj
 0003:0000c8f8       c2_le_emlrtRSI             00000001800708f8     c2_Modele_3D.obj
 0003:0000c910       c2_me_emlrtRSI             0000000180070910     c2_Modele_3D.obj
 0003:0000c928       c2_ne_emlrtRSI             0000000180070928     c2_Modele_3D.obj
 0003:0000c940       c2_oe_emlrtRSI             0000000180070940     c2_Modele_3D.obj
 0003:0000c958       c2_pe_emlrtRSI             0000000180070958     c2_Modele_3D.obj
 0003:0000c970       c2_qe_emlrtRSI             0000000180070970     c2_Modele_3D.obj
 0003:0000c988       c2_re_emlrtRSI             0000000180070988     c2_Modele_3D.obj
 0003:0000c9a0       c2_se_emlrtRSI             00000001800709a0     c2_Modele_3D.obj
 0003:0000c9b8       c2_te_emlrtRSI             00000001800709b8     c2_Modele_3D.obj
 0003:0000c9d0       c2_ue_emlrtRSI             00000001800709d0     c2_Modele_3D.obj
 0003:0000c9e8       c2_ve_emlrtRSI             00000001800709e8     c2_Modele_3D.obj
 0003:0000ca00       c2_we_emlrtRSI             0000000180070a00     c2_Modele_3D.obj
 0003:0000ca18       c2_xe_emlrtRSI             0000000180070a18     c2_Modele_3D.obj
 0003:0000ca30       c2_ye_emlrtRSI             0000000180070a30     c2_Modele_3D.obj
 0003:0000ca48       c2_af_emlrtRSI             0000000180070a48     c2_Modele_3D.obj
 0003:0000ca60       c2_bf_emlrtRSI             0000000180070a60     c2_Modele_3D.obj
 0003:0000ca78       c2_cf_emlrtRSI             0000000180070a78     c2_Modele_3D.obj
 0003:0000ca90       c2_df_emlrtRSI             0000000180070a90     c2_Modele_3D.obj
 0003:0000caa8       c2_ef_emlrtRSI             0000000180070aa8     c2_Modele_3D.obj
 0003:0000cac0       c2_ff_emlrtRSI             0000000180070ac0     c2_Modele_3D.obj
 0003:0000cad8       c2_gf_emlrtRSI             0000000180070ad8     c2_Modele_3D.obj
 0003:0000caf0       c2_hf_emlrtRSI             0000000180070af0     c2_Modele_3D.obj
 0003:0000cb08       c2_if_emlrtRSI             0000000180070b08     c2_Modele_3D.obj
 0003:0000cb20       c2_jf_emlrtRSI             0000000180070b20     c2_Modele_3D.obj
 0003:0000cb38       c2_kf_emlrtRSI             0000000180070b38     c2_Modele_3D.obj
 0003:0000cb50       c2_lf_emlrtRSI             0000000180070b50     c2_Modele_3D.obj
 0003:0000cb68       c2_mf_emlrtRSI             0000000180070b68     c2_Modele_3D.obj
 0003:0000cb80       c2_nf_emlrtRSI             0000000180070b80     c2_Modele_3D.obj
 0003:0000cb98       c2_of_emlrtRSI             0000000180070b98     c2_Modele_3D.obj
 0003:0000cbb0       c2_pf_emlrtRSI             0000000180070bb0     c2_Modele_3D.obj
 0003:0000cbc8       c2_qf_emlrtRSI             0000000180070bc8     c2_Modele_3D.obj
 0003:0000cbe0       c2_rf_emlrtRSI             0000000180070be0     c2_Modele_3D.obj
 0003:0000cbf8       c2_sf_emlrtRSI             0000000180070bf8     c2_Modele_3D.obj
 0003:0000cc10       c2_tf_emlrtRSI             0000000180070c10     c2_Modele_3D.obj
 0003:0000cc28       c2_uf_emlrtRSI             0000000180070c28     c2_Modele_3D.obj
 0003:0000cc40       c2_vf_emlrtRSI             0000000180070c40     c2_Modele_3D.obj
 0003:0000cc58       c2_wf_emlrtRSI             0000000180070c58     c2_Modele_3D.obj
 0003:0000cc70       c2_xf_emlrtRSI             0000000180070c70     c2_Modele_3D.obj
 0003:0000cc88       c2_yf_emlrtRSI             0000000180070c88     c2_Modele_3D.obj
 0003:0000cca0       c2_ag_emlrtRSI             0000000180070ca0     c2_Modele_3D.obj
 0003:0000ccb8       c2_bg_emlrtRSI             0000000180070cb8     c2_Modele_3D.obj
 0003:0000ccd0       c2_cg_emlrtRSI             0000000180070cd0     c2_Modele_3D.obj
 0003:0000cce8       c2_dg_emlrtRSI             0000000180070ce8     c2_Modele_3D.obj
 0003:0000cd00       c2_eg_emlrtRSI             0000000180070d00     c2_Modele_3D.obj
 0003:0000cd18       c2_fg_emlrtRSI             0000000180070d18     c2_Modele_3D.obj
 0003:0000cd30       c2_gg_emlrtRSI             0000000180070d30     c2_Modele_3D.obj
 0003:0000cd48       c2_hg_emlrtRSI             0000000180070d48     c2_Modele_3D.obj
 0003:0000cd60       c2_ig_emlrtRSI             0000000180070d60     c2_Modele_3D.obj
 0003:0000cd78       c2_jg_emlrtRSI             0000000180070d78     c2_Modele_3D.obj
 0003:0000cd90       c2_kg_emlrtRSI             0000000180070d90     c2_Modele_3D.obj
 0003:0000cda8       c2_lg_emlrtRSI             0000000180070da8     c2_Modele_3D.obj
 0003:0000cdc0       c2_mg_emlrtRSI             0000000180070dc0     c2_Modele_3D.obj
 0003:0000cdd8       c2_ng_emlrtRSI             0000000180070dd8     c2_Modele_3D.obj
 0003:0000cdf0       c2_og_emlrtRSI             0000000180070df0     c2_Modele_3D.obj
 0003:0000ce08       c2_pg_emlrtRSI             0000000180070e08     c2_Modele_3D.obj
 0003:0000ce20       c2_qg_emlrtRSI             0000000180070e20     c2_Modele_3D.obj
 0003:0000ce38       c2_rg_emlrtRSI             0000000180070e38     c2_Modele_3D.obj
 0003:0000ce50       c2_sg_emlrtRSI             0000000180070e50     c2_Modele_3D.obj
 0003:0000ce68       c2_tg_emlrtRSI             0000000180070e68     c2_Modele_3D.obj
 0003:0000ce80       c2_ug_emlrtRSI             0000000180070e80     c2_Modele_3D.obj
 0003:0000ce98       c2_vg_emlrtRSI             0000000180070e98     c2_Modele_3D.obj
 0003:0000ceb0       c2_wg_emlrtRSI             0000000180070eb0     c2_Modele_3D.obj
 0003:0000cec8       c2_xg_emlrtRSI             0000000180070ec8     c2_Modele_3D.obj
 0003:0000cee0       c2_yg_emlrtRSI             0000000180070ee0     c2_Modele_3D.obj
 0003:0000cef8       c2_ah_emlrtRSI             0000000180070ef8     c2_Modele_3D.obj
 0003:0000cf10       c2_bh_emlrtRSI             0000000180070f10     c2_Modele_3D.obj
 0003:0000cf28       c2_ch_emlrtRSI             0000000180070f28     c2_Modele_3D.obj
 0003:0000cf40       c2_dh_emlrtRSI             0000000180070f40     c2_Modele_3D.obj
 0003:0000cf58       c2_eh_emlrtRSI             0000000180070f58     c2_Modele_3D.obj
 0003:0000cf70       c2_fh_emlrtRSI             0000000180070f70     c2_Modele_3D.obj
 0003:0000cf88       c2_gh_emlrtRSI             0000000180070f88     c2_Modele_3D.obj
 0003:0000cfa0       c2_hh_emlrtRSI             0000000180070fa0     c2_Modele_3D.obj
 0003:0000cfb8       c2_ih_emlrtRSI             0000000180070fb8     c2_Modele_3D.obj
 0003:0000cfd0       c2_jh_emlrtRSI             0000000180070fd0     c2_Modele_3D.obj
 0003:0000cfe8       c2_kh_emlrtRSI             0000000180070fe8     c2_Modele_3D.obj
 0003:0000d000       c2_lh_emlrtRSI             0000000180071000     c2_Modele_3D.obj
 0003:0000d018       c2_mh_emlrtRSI             0000000180071018     c2_Modele_3D.obj
 0003:0000d030       c2_nh_emlrtRSI             0000000180071030     c2_Modele_3D.obj
 0003:0000d048       c2_oh_emlrtRSI             0000000180071048     c2_Modele_3D.obj
 0003:0000d060       c2_ph_emlrtRSI             0000000180071060     c2_Modele_3D.obj
 0003:0000d078       c2_qh_emlrtRSI             0000000180071078     c2_Modele_3D.obj
 0003:0000d090       c2_rh_emlrtRSI             0000000180071090     c2_Modele_3D.obj
 0003:0000d0a8       c2_sh_emlrtRSI             00000001800710a8     c2_Modele_3D.obj
 0003:0000d0c0       c2_u_emlrtRTEI             00000001800710c0     c2_Modele_3D.obj
 0003:0000d0d8       c2_v_emlrtRTEI             00000001800710d8     c2_Modele_3D.obj
 0003:0000d0f0       c2_rc_emlrtRTEI            00000001800710f0     c2_Modele_3D.obj
 0003:0000d108       c2_sc_emlrtRTEI            0000000180071108     c2_Modele_3D.obj
 0003:0000d120       c2_tc_emlrtRTEI            0000000180071120     c2_Modele_3D.obj
 0003:0000d138       c2_yc_emlrtRTEI            0000000180071138     c2_Modele_3D.obj
 0003:0000d150       c2_ad_emlrtRTEI            0000000180071150     c2_Modele_3D.obj
 0003:0000d168       c2_dd_emlrtRTEI            0000000180071168     c2_Modele_3D.obj
 0003:0000d180       c2_gd_emlrtRTEI            0000000180071180     c2_Modele_3D.obj
 0003:0000d198       c2_kd_emlrtRTEI            0000000180071198     c2_Modele_3D.obj
 0003:0000d1b0       c2_emlrtBCI                00000001800711b0     c2_Modele_3D.obj
 0003:0000d1e0       c2_b_emlrtBCI              00000001800711e0     c2_Modele_3D.obj
 0003:0000d210       c2_emlrtDCI                0000000180071210     c2_Modele_3D.obj
 0003:0000d230       c2_c_emlrtBCI              0000000180071230     c2_Modele_3D.obj
 0003:0000d260       c2_emlrtECI                0000000180071260     c2_Modele_3D.obj
 0003:0000d280       c2_b_emlrtDCI              0000000180071280     c2_Modele_3D.obj
 0003:0000d2a0       c2_d_emlrtBCI              00000001800712a0     c2_Modele_3D.obj
 0003:0000d2d0       c2_b_emlrtECI              00000001800712d0     c2_Modele_3D.obj
 0003:0000d2f0       c2_c_emlrtECI              00000001800712f0     c2_Modele_3D.obj
 0003:0000d310       c2_d_emlrtECI              0000000180071310     c2_Modele_3D.obj
 0003:0000d330       c2_c_emlrtDCI              0000000180071330     c2_Modele_3D.obj
 0003:0000d350       c2_e_emlrtBCI              0000000180071350     c2_Modele_3D.obj
 0003:0000d380       c2_d_emlrtDCI              0000000180071380     c2_Modele_3D.obj
 0003:0000d3a0       c2_f_emlrtBCI              00000001800713a0     c2_Modele_3D.obj
 0003:0000d3d0       c2_e_emlrtECI              00000001800713d0     c2_Modele_3D.obj
 0003:0000d3f0       c2_me_emlrtRTEI            00000001800713f0     c2_Modele_3D.obj
 0003:0000d408       c2_g_emlrtBCI              0000000180071408     c2_Modele_3D.obj
 0003:0000d438       c2_e_emlrtDCI              0000000180071438     c2_Modele_3D.obj
 0003:0000d458       c2_f_emlrtDCI              0000000180071458     c2_Modele_3D.obj
 0003:0000d478       c2_h_emlrtBCI              0000000180071478     c2_Modele_3D.obj
 0003:0000d4a8       c2_g_emlrtDCI              00000001800714a8     c2_Modele_3D.obj
 0003:0000d4c8       c2_i_emlrtBCI              00000001800714c8     c2_Modele_3D.obj
 0003:0000d4f8       c2_h_emlrtDCI              00000001800714f8     c2_Modele_3D.obj
 0003:0000d518       c2_i_emlrtDCI              0000000180071518     c2_Modele_3D.obj
 0003:0000d538       c2_f_emlrtECI              0000000180071538     c2_Modele_3D.obj
 0003:0000d558       c2_j_emlrtBCI              0000000180071558     c2_Modele_3D.obj
 0003:0000d588       c2_j_emlrtDCI              0000000180071588     c2_Modele_3D.obj
 0003:0000d5a8       c2_k_emlrtBCI              00000001800715a8     c2_Modele_3D.obj
 0003:0000d5d8       c2_k_emlrtDCI              00000001800715d8     c2_Modele_3D.obj
 0003:0000d5f8       c2_l_emlrtBCI              00000001800715f8     c2_Modele_3D.obj
 0003:0000d628       c2_l_emlrtDCI              0000000180071628     c2_Modele_3D.obj
 0003:0000d648       c2_m_emlrtBCI              0000000180071648     c2_Modele_3D.obj
 0003:0000d678       c2_g_emlrtECI              0000000180071678     c2_Modele_3D.obj
 0003:0000d698       c2_m_emlrtDCI              0000000180071698     c2_Modele_3D.obj
 0003:0000d6b8       c2_n_emlrtBCI              00000001800716b8     c2_Modele_3D.obj
 0003:0000d6e8       c2_h_emlrtECI              00000001800716e8     c2_Modele_3D.obj
 0003:0000d708       c2_n_emlrtDCI              0000000180071708     c2_Modele_3D.obj
 0003:0000d728       c2_o_emlrtBCI              0000000180071728     c2_Modele_3D.obj
 0003:0000d758       c2_o_emlrtDCI              0000000180071758     c2_Modele_3D.obj
 0003:0000d778       c2_p_emlrtDCI              0000000180071778     c2_Modele_3D.obj
 0003:0000d798       c2_p_emlrtBCI              0000000180071798     c2_Modele_3D.obj
 0003:0000d7c8       c2_q_emlrtDCI              00000001800717c8     c2_Modele_3D.obj
 0003:0000d7e8       c2_q_emlrtBCI              00000001800717e8     c2_Modele_3D.obj
 0003:0000d818       c2_r_emlrtDCI              0000000180071818     c2_Modele_3D.obj
 0003:0000d838       c2_r_emlrtBCI              0000000180071838     c2_Modele_3D.obj
 0003:0000d868       c2_s_emlrtDCI              0000000180071868     c2_Modele_3D.obj
 0003:0000d888       c2_s_emlrtBCI              0000000180071888     c2_Modele_3D.obj
 0003:0000d8b8       c2_t_emlrtBCI              00000001800718b8     c2_Modele_3D.obj
 0003:0000d8e8       c2_ne_emlrtRTEI            00000001800718e8     c2_Modele_3D.obj
 0003:0000d900       c2_u_emlrtBCI              0000000180071900     c2_Modele_3D.obj
 0003:0000d930       c2_v_emlrtBCI              0000000180071930     c2_Modele_3D.obj
 0003:0000d960       c2_w_emlrtBCI              0000000180071960     c2_Modele_3D.obj
 0003:0000d990       c2_t_emlrtDCI              0000000180071990     c2_Modele_3D.obj
 0003:0000d9b0       c2_oe_emlrtRTEI            00000001800719b0     c2_Modele_3D.obj
 0003:0000d9c8       c2_x_emlrtBCI              00000001800719c8     c2_Modele_3D.obj
 0003:0000d9f8       c2_pe_emlrtRTEI            00000001800719f8     c2_Modele_3D.obj
 0003:0000da10       c2_y_emlrtBCI              0000000180071a10     c2_Modele_3D.obj
 0003:0000da40       c2_ab_emlrtBCI             0000000180071a40     c2_Modele_3D.obj
 0003:0000da70       c2_qe_emlrtRTEI            0000000180071a70     c2_Modele_3D.obj
 0003:0000da88       c2_bb_emlrtBCI             0000000180071a88     c2_Modele_3D.obj
 0003:0000dab8       c2_i_emlrtECI              0000000180071ab8     c2_Modele_3D.obj
 0003:0000dad8       c2_cb_emlrtBCI             0000000180071ad8     c2_Modele_3D.obj
 0003:0000db08       c2_j_emlrtECI              0000000180071b08     c2_Modele_3D.obj
 0003:0000db28       c2_u_emlrtDCI              0000000180071b28     c2_Modele_3D.obj
 0003:0000db48       c2_v_emlrtDCI              0000000180071b48     c2_Modele_3D.obj
 0003:0000db68       c2_db_emlrtBCI             0000000180071b68     c2_Modele_3D.obj
 0003:0000db98       c2_eb_emlrtBCI             0000000180071b98     c2_Modele_3D.obj
 0003:0000dbc8       c2_fb_emlrtBCI             0000000180071bc8     c2_Modele_3D.obj
 0003:0000dbf8       c2_gb_emlrtBCI             0000000180071bf8     c2_Modele_3D.obj
 0003:0000dc28       c2_re_emlrtRTEI            0000000180071c28     c2_Modele_3D.obj
 0003:0000dc40       c2_hb_emlrtBCI             0000000180071c40     c2_Modele_3D.obj
 0003:0000dc70       c2_ib_emlrtBCI             0000000180071c70     c2_Modele_3D.obj
 0003:0000dca0       c2_w_emlrtDCI              0000000180071ca0     c2_Modele_3D.obj
 0003:0000dcc0       c2_jb_emlrtBCI             0000000180071cc0     c2_Modele_3D.obj
 0003:0000dcf0       c2_x_emlrtDCI              0000000180071cf0     c2_Modele_3D.obj
 0003:0000dd10       c2_kb_emlrtBCI             0000000180071d10     c2_Modele_3D.obj
 0003:0000dd40       c2_m_emlrtECI              0000000180071d40     c2_Modele_3D.obj
 0003:0000dd60       c2_y_emlrtDCI              0000000180071d60     c2_Modele_3D.obj
 0003:0000dd80       c2_ab_emlrtDCI             0000000180071d80     c2_Modele_3D.obj
 0003:0000dda0       c2_lb_emlrtBCI             0000000180071da0     c2_Modele_3D.obj
 0003:0000ddd0       c2_mb_emlrtBCI             0000000180071dd0     c2_Modele_3D.obj
 0003:0000de00       c2_se_emlrtRTEI            0000000180071e00     c2_Modele_3D.obj
 0003:0000de18       c2_bb_emlrtDCI             0000000180071e18     c2_Modele_3D.obj
 0003:0000de38       c2_nb_emlrtBCI             0000000180071e38     c2_Modele_3D.obj
 0003:0000de68       c2_cb_emlrtDCI             0000000180071e68     c2_Modele_3D.obj
 0003:0000de88       c2_ob_emlrtBCI             0000000180071e88     c2_Modele_3D.obj
 0003:0000deb8       c2_db_emlrtDCI             0000000180071eb8     c2_Modele_3D.obj
 0003:0000ded8       c2_pb_emlrtBCI             0000000180071ed8     c2_Modele_3D.obj
 0003:0000df08       c2_qb_emlrtBCI             0000000180071f08     c2_Modele_3D.obj
 0003:0000df38       c2_rb_emlrtBCI             0000000180071f38     c2_Modele_3D.obj
 0003:0000df68       c2_sb_emlrtBCI             0000000180071f68     c2_Modele_3D.obj
 0003:0000df98       c2_tb_emlrtBCI             0000000180071f98     c2_Modele_3D.obj
 0003:0000dfc8       c2_ub_emlrtBCI             0000000180071fc8     c2_Modele_3D.obj
 0003:0000dff8       c2_vb_emlrtBCI             0000000180071ff8     c2_Modele_3D.obj
 0003:0000e028       c2_n_emlrtECI              0000000180072028     c2_Modele_3D.obj
 0003:0000e048       c2_te_emlrtRTEI            0000000180072048     c2_Modele_3D.obj
 0003:0000e060       c2_wb_emlrtBCI             0000000180072060     c2_Modele_3D.obj
 0003:0000e090       c2_xb_emlrtBCI             0000000180072090     c2_Modele_3D.obj
 0003:0000e0c0       c2_yb_emlrtBCI             00000001800720c0     c2_Modele_3D.obj
 0003:0000e0f0       c2_ac_emlrtBCI             00000001800720f0     c2_Modele_3D.obj
 0003:0000e120       c2_bc_emlrtBCI             0000000180072120     c2_Modele_3D.obj
 0003:0000e150       c2_o_emlrtECI              0000000180072150     c2_Modele_3D.obj
 0003:0000e170       c2_uh_emlrtRSI             0000000180072170     c2_Modele_3D.obj
 0003:0000e188       c2_vh_emlrtRSI             0000000180072188     c2_Modele_3D.obj
 0003:0000e1a0       c2_wh_emlrtRSI             00000001800721a0     c2_Modele_3D.obj
 0003:0000e1b8       c2_dv1                     00000001800721b8     c2_Modele_3D.obj
 0003:0000e1d0       c2_dv                      00000001800721d0     c2_Modele_3D.obj
 0003:0000e250       c2_cv                      0000000180072250     c2_Modele_3D.obj
 0003:0000e25c       ?c2_b_cv@?1??sf_gateway_c2_Modele_3D@@9@9 000000018007225c     c2_Modele_3D.obj
 0003:0000e260       c2_dv2                     0000000180072260     c2_Modele_3D.obj
 0003:0000e298       c2_dv3                     0000000180072298     c2_Modele_3D.obj
 0003:0000e2c8       c2_dv4                     00000001800722c8     c2_Modele_3D.obj
 0003:0000e2e0       c2_dv5                     00000001800722e0     c2_Modele_3D.obj
 0003:0000e310       c2_cv1                     0000000180072310     c2_Modele_3D.obj
 0003:0000e31c       $SG28815                   000000018007231c     c2_Modele_3D.obj
 0003:0000e320       c2_cv2                     0000000180072320     c2_Modele_3D.obj
 0003:0000e360       c2_cv3                     0000000180072360     c2_Modele_3D.obj
 0003:0000e36c       $SG28816                   000000018007236c     c2_Modele_3D.obj
 0003:0000e370       c2_cv4                     0000000180072370     c2_Modele_3D.obj
 0003:0000e37c       $SG28817                   000000018007237c     c2_Modele_3D.obj
 0003:0000e380       c2_cv5                     0000000180072380     c2_Modele_3D.obj
 0003:0000e3b4       $SG28818                   00000001800723b4     c2_Modele_3D.obj
 0003:0000e3b8       c2_cv6                     00000001800723b8     c2_Modele_3D.obj
 0003:0000e3f8       c2_cv7                     00000001800723f8     c2_Modele_3D.obj
 0003:0000e420       c2_cv8                     0000000180072420     c2_Modele_3D.obj
 0003:0000e448       c2_cv9                     0000000180072448     c2_Modele_3D.obj
 0003:0000e468       c2_cv10                    0000000180072468     c2_Modele_3D.obj
 0003:0000e49c       $SG28819                   000000018007249c     c2_Modele_3D.obj
 0003:0000e4a0       c2_cv11                    00000001800724a0     c2_Modele_3D.obj
 0003:0000e4d4       $SG28820                   00000001800724d4     c2_Modele_3D.obj
 0003:0000e4d8       c2_cv12                    00000001800724d8     c2_Modele_3D.obj
 0003:0000e500       c2_cv13                    0000000180072500     c2_Modele_3D.obj
 0003:0000e530       c2_cv14                    0000000180072530     c2_Modele_3D.obj
 0003:0000e5b0       c2_cv15                    00000001800725b0     c2_Modele_3D.obj
 0003:0000e5d0       c2_cv16                    00000001800725d0     c2_Modele_3D.obj
 0003:0000e604       $SG28823                   0000000180072604     c2_Modele_3D.obj
 0003:0000e608       c2_cv17                    0000000180072608     c2_Modele_3D.obj
 0003:0000e63c       $SG28824                   000000018007263c     c2_Modele_3D.obj
 0003:0000e640       c2_cv18                    0000000180072640     c2_Modele_3D.obj
 0003:0000e66c       $SG28827                   000000018007266c     c2_Modele_3D.obj
 0003:0000e670       c2_cv19                    0000000180072670     c2_Modele_3D.obj
 0003:0000e6a0       c2_cv20                    00000001800726a0     c2_Modele_3D.obj
 0003:0000e6b0       c2_dv6                     00000001800726b0     c2_Modele_3D.obj
 0003:0000e6d0       c2_cv21                    00000001800726d0     c2_Modele_3D.obj
 0003:0000e6f0       c2_cv22                    00000001800726f0     c2_Modele_3D.obj
 0003:0000e718       $SG28368                   0000000180072718     c2_Modele_3D.obj
 0003:0000e730       $SG28369                   0000000180072730     c2_Modele_3D.obj
 0003:0000e758       $SG28392                   0000000180072758     c2_Modele_3D.obj
 0003:0000e768       ?c2_b_dv@?1??sf_gateway_c2_Modele_3D@@9@9 0000000180072768     c2_Modele_3D.obj
 0003:0000e788       $SG28828                   0000000180072788     c2_Modele_3D.obj
 0003:0000e790       ?c2_inputTform@?1??sf_gateway_c2_Modele_3D@@9@9 0000000180072790     c2_Modele_3D.obj
 0003:0000e810       ?c2_b_cv3@?1??sf_gateway_c2_Modele_3D@@9@9 0000000180072810     c2_Modele_3D.obj
 0003:0000e81c       $SG28831                   000000018007281c     c2_Modele_3D.obj
 0003:0000e820       $SG28832                   0000000180072820     c2_Modele_3D.obj
 0003:0000e824       $SG28835                   0000000180072824     c2_Modele_3D.obj
 0003:0000e828       $SG28836                   0000000180072828     c2_Modele_3D.obj
 0003:0000e82c       $SG28853                   000000018007282c     c2_Modele_3D.obj
 0003:0000e830       $SG28854                   0000000180072830     c2_Modele_3D.obj
 0003:0000e834       $SG28855                   0000000180072834     c2_Modele_3D.obj
 0003:0000e838       $SG28856                   0000000180072838     c2_Modele_3D.obj
 0003:0000e83c       $SG28857                   000000018007283c     c2_Modele_3D.obj
 0003:0000e840       $SG28858                   0000000180072840     c2_Modele_3D.obj
 0003:0000e844       $SG28859                   0000000180072844     c2_Modele_3D.obj
 0003:0000e84c       $SG28860                   000000018007284c     c2_Modele_3D.obj
 0003:0000e854       $SG28861                   0000000180072854     c2_Modele_3D.obj
 0003:0000e85c       $SG28862                   000000018007285c     c2_Modele_3D.obj
 0003:0000e864       $SG29534                   0000000180072864     c2_Modele_3D.obj
 0003:0000e868       ?c2_b_cv1@?1??c2_rigidBody_rigidBody@@9@9 0000000180072868     c2_Modele_3D.obj
 0003:0000e874       $SG29535                   0000000180072874     c2_Modele_3D.obj
 0003:0000e878       ?c2_b_cv@?1??c2_rigidBody_rigidBody@@9@9 0000000180072878     c2_Modele_3D.obj
 0003:0000e880       ?c2_b_cv3@?1??c2_rigidBody_rigidBody@@9@9 0000000180072880     c2_Modele_3D.obj
 0003:0000e888       ?c2_b_cv4@?1??c2_rigidBody_rigidBody@@9@9 0000000180072888     c2_Modele_3D.obj
 0003:0000e890       ?c2_b_cv2@?1??c2_rigidBody_rigidBody@@9@9 0000000180072890     c2_Modele_3D.obj
 0003:0000e898       ?c2_b_cv5@?1??c2_rigidBody_rigidBody@@9@9 0000000180072898     c2_Modele_3D.obj
 0003:0000e8a0       ?c2_b_cv@?1??c2_rigidBodyJoint_set_MotionSubspace@@9@9 00000001800728a0     c2_Modele_3D.obj
 0003:0000e8a8       ?c2_b_cv@?1??c2_rand@@9@9  00000001800728a8     c2_Modele_3D.obj
 0003:0000e8d0       ?c2_uv@?1??c2_rand@@9@9    00000001800728d0     c2_Modele_3D.obj
 0003:0000f294       ?c2_b_cv@?1??c2_RigidBodyTree_RigidBodyTree@@9@9 0000000180073294     c2_Modele_3D.obj
 0003:0000f298       $SG29536                   0000000180073298     c2_Modele_3D.obj
 0003:0000f2a0       $SG29537                   00000001800732a0     c2_Modele_3D.obj
 0003:0000f2ac       $SG29538                   00000001800732ac     c2_Modele_3D.obj
 0003:0000f2b4       ?c2_b_cv@?1??c2_RigidBody_RigidBody@@9@9 00000001800732b4     c2_Modele_3D.obj
 0003:0000f2b8       ?c2_b_jname@?1??c2_RigidBodyTree_RigidBodyTree@@9@9 00000001800732b8     c2_Modele_3D.obj
 0003:0000f2c8       ?c2_b_cv@?1??c2_rigidBodyJoint_rigidBodyJoint@@9@9 00000001800732c8     c2_Modele_3D.obj
 0003:0000f2d0       ?c2_b_cv2@?1??c2_rigidBodyJoint_rigidBodyJoint@@9@9 00000001800732d0     c2_Modele_3D.obj
 0003:0000f2d8       ?c2_b_cv3@?1??c2_rigidBodyJoint_rigidBodyJoint@@9@9 00000001800732d8     c2_Modele_3D.obj
 0003:0000f2e0       ?c2_b_cv1@?1??c2_rigidBodyJoint_rigidBodyJoint@@9@9 00000001800732e0     c2_Modele_3D.obj
 0003:0000f2e8       ?c2_b_cv4@?1??c2_rigidBodyJoint_rigidBodyJoint@@9@9 00000001800732e8     c2_Modele_3D.obj
 0003:0000f2f0       ?c2_b_cv1@?1??c2_b_rigidBodyJoint_rigidBodyJoint@@9@9 00000001800732f0     c2_Modele_3D.obj
 0003:0000f2f8       ?c2_b_cv2@?1??c2_b_rigidBodyJoint_rigidBodyJoint@@9@9 00000001800732f8     c2_Modele_3D.obj
 0003:0000f300       ?c2_b_cv@?1??c2_b_rigidBodyJoint_rigidBodyJoint@@9@9 0000000180073300     c2_Modele_3D.obj
 0003:0000f308       ?c2_b_cv3@?1??c2_b_rigidBodyJoint_rigidBodyJoint@@9@9 0000000180073308     c2_Modele_3D.obj
 0003:0000f310       ?c2_b_cv@?1??c2_b_rigidBody_rigidBody@@9@9 0000000180073310     c2_Modele_3D.obj
 0003:0000f320       ?c2_b_cv2@?1??c2_b_rigidBody_rigidBody@@9@9 0000000180073320     c2_Modele_3D.obj
 0003:0000f328       ?c2_b_cv3@?1??c2_b_rigidBody_rigidBody@@9@9 0000000180073328     c2_Modele_3D.obj
 0003:0000f330       ?c2_b_cv1@?1??c2_b_rigidBody_rigidBody@@9@9 0000000180073330     c2_Modele_3D.obj
 0003:0000f338       ?c2_b_cv4@?1??c2_b_rigidBody_rigidBody@@9@9 0000000180073338     c2_Modele_3D.obj
 0003:0000f340       ?c2_b_cv1@?1??c2_c_rigidBodyJoint_rigidBodyJoint@@9@9 0000000180073340     c2_Modele_3D.obj
 0003:0000f348       ?c2_b_cv2@?1??c2_c_rigidBodyJoint_rigidBodyJoint@@9@9 0000000180073348     c2_Modele_3D.obj
 0003:0000f350       ?c2_b_cv3@?1??c2_c_rigidBodyJoint_rigidBodyJoint@@9@9 0000000180073350     c2_Modele_3D.obj
 0003:0000f358       ?c2_b_cv@?1??c2_c_rigidBodyJoint_rigidBodyJoint@@9@9 0000000180073358     c2_Modele_3D.obj
 0003:0000f360       ?c2_b_cv4@?1??c2_c_rigidBodyJoint_rigidBodyJoint@@9@9 0000000180073360     c2_Modele_3D.obj
 0003:0000f368       ?c2_b_cv1@?1??c2_d_rigidBodyJoint_rigidBodyJoint@@9@9 0000000180073368     c2_Modele_3D.obj
 0003:0000f370       ?c2_b_cv2@?1??c2_d_rigidBodyJoint_rigidBodyJoint@@9@9 0000000180073370     c2_Modele_3D.obj
 0003:0000f378       ?c2_b_cv3@?1??c2_d_rigidBodyJoint_rigidBodyJoint@@9@9 0000000180073378     c2_Modele_3D.obj
 0003:0000f380       ?c2_b_cv@?1??c2_d_rigidBodyJoint_rigidBodyJoint@@9@9 0000000180073380     c2_Modele_3D.obj
 0003:0000f388       ?c2_b_cv4@?1??c2_d_rigidBodyJoint_rigidBodyJoint@@9@9 0000000180073388     c2_Modele_3D.obj
 0003:0000f390       ?c2_b_cv1@?1??c2_rigidBodyJoint_set_PositionLimits@@9@9 0000000180073390     c2_Modele_3D.obj
 0003:0000f398       ?c2_b_cv@?1??c2_rigidBodyJoint_set_PositionLimits@@9@9 0000000180073398     c2_Modele_3D.obj
 0003:0000f39c       ?c2_b_cv2@?1??c2_rigidBodyJoint_set_PositionLimits@@9@9 000000018007339c     c2_Modele_3D.obj
 0003:0000f3a0       $SG31556                   00000001800733a0     c2_Modele_3D.obj
 0003:0000f3a4       $SG31557                   00000001800733a4     c2_Modele_3D.obj
 0003:0000f3a8       $SG31558                   00000001800733a8     c2_Modele_3D.obj
 0003:0000f3b0       $SG31559                   00000001800733b0     c2_Modele_3D.obj
 0003:0000f3bc       $SG31560                   00000001800733bc     c2_Modele_3D.obj
 0003:0000f3c4       $SG31564                   00000001800733c4     c2_Modele_3D.obj
 0003:0000f3c8       $SG31565                   00000001800733c8     c2_Modele_3D.obj
 0003:0000f3cc       $SG31576                   00000001800733cc     c2_Modele_3D.obj
 0003:0000f3d0       $SG31566                   00000001800733d0     c2_Modele_3D.obj
 0003:0000f3d8       $SG31567                   00000001800733d8     c2_Modele_3D.obj
 0003:0000f3e4       $SG31568                   00000001800733e4     c2_Modele_3D.obj
 0003:0000f3ec       $SG31577                   00000001800733ec     c2_Modele_3D.obj
 0003:0000f3f0       $SG31578                   00000001800733f0     c2_Modele_3D.obj
 0003:0000f3f8       $SG31579                   00000001800733f8     c2_Modele_3D.obj
 0003:0000f404       $SG31580                   0000000180073404     c2_Modele_3D.obj
 0003:0000f40c       $SG31583                   000000018007340c     c2_Modele_3D.obj
 0003:0000f410       $SG31584                   0000000180073410     c2_Modele_3D.obj
 0003:0000f414       $SG31589                   0000000180073414     c2_Modele_3D.obj
 0003:0000f418       $SG31585                   0000000180073418     c2_Modele_3D.obj
 0003:0000f420       $SG31586                   0000000180073420     c2_Modele_3D.obj
 0003:0000f42c       $SG31587                   000000018007342c     c2_Modele_3D.obj
 0003:0000f434       $SG31590                   0000000180073434     c2_Modele_3D.obj
 0003:0000f438       $SG31591                   0000000180073438     c2_Modele_3D.obj
 0003:0000f440       $SG31592                   0000000180073440     c2_Modele_3D.obj
 0003:0000f44c       $SG31593                   000000018007344c     c2_Modele_3D.obj
 0003:0000f454       $SG31687                   0000000180073454     c2_Modele_3D.obj
 0003:0000f458       ?c2_b_cv2@?1??c2_validateattributes@@9@9 0000000180073458     c2_Modele_3D.obj
 0003:0000f488       ?c2_b_cv@?1??c2_validateattributes@@9@9 0000000180073488     c2_Modele_3D.obj
 0003:0000f4b0       ?c2_b_cv1@?1??c2_validateattributes@@9@9 00000001800734b0     c2_Modele_3D.obj
 0003:0000f4d4       $SG31688                   00000001800734d4     c2_Modele_3D.obj
 0003:0000f4d8       ?c2_b_cv3@?1??c2_validateattributes@@9@9 00000001800734d8     c2_Modele_3D.obj
 0003:0000f4e8       $SG31689                   00000001800734e8     c2_Modele_3D.obj
 0003:0000f4f0       $SG31690                   00000001800734f0     c2_Modele_3D.obj
